---
triple:          'arm64-apple-darwin'
binary-path:     '/Users/gayathrivijay/Downloads/HelloWorld/rpn-calculator/rpn-calculator-example'
relocations:
  - { offsetInCU: 0x52, offset: 0x52, size: 0x8, addend: 0x0, symName: _command_name, symObjAddr: 0xA3B48, symBinAddr: 0x10001C000, symSize: 0x0 }
  - { offsetInCU: 0x60A0, offset: 0x60A0, size: 0x8, addend: 0x0, symName: __ZNSt3__1L19piecewise_constructE, symObjAddr: 0x15712, symBinAddr: 0x1000173FE, symSize: 0x0 }
  - { offsetInCU: 0x8518, offset: 0x8518, size: 0x8, addend: 0x0, symName: __ZNSt3__16copy_nB8ue170006INS_16__deque_iteratorItPKtRS2_PKS3_lLl2048EEElNS1_ItPtRtPS8_lLl2048EEEEENS_9enable_ifIXsr37__has_random_access_iterator_categoryIT_EE5valueET1_E4typeESD_T0_SE_, symObjAddr: 0xAF8C, symBinAddr: 0x10000C788, symSize: 0x88 }
  - { offsetInCU: 0x8A72, offset: 0x8A72, size: 0x8, addend: 0x0, symName: __ZNSt3__124__put_character_sequenceB8ue170006IcNS_11char_traitsIcEEEERNS_13basic_ostreamIT_T0_EES7_PKS4_m, symObjAddr: 0xD8CC, symBinAddr: 0x10000F0C8, symSize: 0x1EC }
  - { offsetInCU: 0xE04A, offset: 0xE04A, size: 0x8, addend: 0x0, symName: __ZNSt3__111make_sharedB8ue170006ItJRtEvEENS_10shared_ptrIT_EEDpOT0_, symObjAddr: 0xA94, symBinAddr: 0x100002290, symSize: 0x40 }
  - { offsetInCU: 0xE08D, offset: 0xE08D, size: 0x8, addend: 0x0, symName: __ZNSt3__111make_sharedB8ue170006ItJiEvEENS_10shared_ptrIT_EEDpOT0_, symObjAddr: 0xBC8, symBinAddr: 0x1000023C4, symSize: 0x40 }
  - { offsetInCU: 0xE0D0, offset: 0xE0D0, size: 0x8, addend: 0x0, symName: __ZNSt3__1lsB8ue170006INS_11char_traitsIcEEEERNS_13basic_ostreamIcT_EES6_PKc, symObjAddr: 0x10D4, symBinAddr: 0x1000028D0, symSize: 0x48 }
  - { offsetInCU: 0xE116, offset: 0xE116, size: 0x8, addend: 0x0, symName: __ZNSt3__1lsB8ue170006INS_11char_traitsIcEEEERNS_13basic_ostreamIcT_EES6_RKNS_8__iom_t4IcEE, symObjAddr: 0x111C, symBinAddr: 0x100002918, symSize: 0x40 }
  - { offsetInCU: 0xE159, offset: 0xE159, size: 0x8, addend: 0x0, symName: __ZNSt3__1lsB8ue170006IcNS_11char_traitsIcEEEERNS_13basic_ostreamIT_T0_EES7_RKNS_8__iom_t6E, symObjAddr: 0x115C, symBinAddr: 0x100002958, symSize: 0x40 }
  - { offsetInCU: 0xE1A8, offset: 0xE1A8, size: 0x8, addend: 0x0, symName: __ZNSt3__14leftB8ue170006ERNS_8ios_baseE, symObjAddr: 0x11DC, symBinAddr: 0x1000029D8, symSize: 0x30 }
  - { offsetInCU: 0xE1D6, offset: 0xE1D6, size: 0x8, addend: 0x0, symName: __ZNSt3__14setwB8ue170006Ei, symObjAddr: 0x120C, symBinAddr: 0x100002A08, symSize: 0x2C }
  - { offsetInCU: 0xE204, offset: 0xE204, size: 0x8, addend: 0x0, symName: __ZNSt3__17setfillB8ue170006IcEENS_8__iom_t4IT_EES2_, symObjAddr: 0x1238, symBinAddr: 0x100002A34, symSize: 0x2C }
  - { offsetInCU: 0xE239, offset: 0xE239, size: 0x8, addend: 0x0, symName: __ZNSt3__14endlB8ue170006IcNS_11char_traitsIcEEEERNS_13basic_ostreamIT_T0_EES7_, symObjAddr: 0x1290, symBinAddr: 0x100002A8C, symSize: 0x58 }
  - { offsetInCU: 0xE279, offset: 0xE279, size: 0x8, addend: 0x0, symName: __ZNSt3__1lsB8ue170006IcNS_11char_traitsIcEENS_9allocatorIcEEEERNS_13basic_ostreamIT_T0_EES9_RKNS_12basic_stringIS6_S7_T1_EE, symObjAddr: 0x199C, symBinAddr: 0x100003198, symSize: 0x4C }
  - { offsetInCU: 0xE2D1, offset: 0xE2D1, size: 0x8, addend: 0x0, symName: __ZNSt3__1lsB8ue170006IcNS_11char_traitsIcEELm16EEERNS_13basic_ostreamIT_T0_EES7_RKNS_6bitsetIXT1_EEE, symObjAddr: 0x1A14, symBinAddr: 0x100003210, symSize: 0x158 }
  - { offsetInCU: 0xFC05, offset: 0xFC05, size: 0x8, addend: 0x0, symName: __ZNSt3__17getlineB8ue170006IcNS_11char_traitsIcEENS_9allocatorIcEEEERNS_13basic_istreamIT_T0_EES9_RNS_12basic_stringIS6_S7_T1_EE, symObjAddr: 0x2CE0, symBinAddr: 0x1000044DC, symSize: 0x5C }
  - { offsetInCU: 0xFC5D, offset: 0xFC5D, size: 0x8, addend: 0x0, symName: __ZNSt3__111make_sharedB8ue170006ItJRiEvEENS_10shared_ptrIT_EEDpOT0_, symObjAddr: 0x2E70, symBinAddr: 0x10000466C, symSize: 0x40 }
  - { offsetInCU: 0xFCA0, offset: 0xFCA0, size: 0x8, addend: 0x0, symName: __ZNSt3__1eqB8ue170006ItEEbRKNS_10shared_ptrIT_EEDn, symObjAddr: 0x2EB0, symBinAddr: 0x1000046AC, symSize: 0x30 }
  - { offsetInCU: 0xFCED, offset: 0xFCED, size: 0x8, addend: 0x0, symName: __ZNSt3__1neB8ue170006ERKNS_16__deque_iteratorItPtRtPS1_lLl2048EEES6_, symObjAddr: 0x3590, symBinAddr: 0x100004D8C, symSize: 0x34 }
  - { offsetInCU: 0xFD2A, offset: 0xFD2A, size: 0x8, addend: 0x0, symName: __ZNSt3__1eqB8ue170006ERKNS_16__deque_iteratorItPtRtPS1_lLl2048EEES6_, symObjAddr: 0x38DC, symBinAddr: 0x1000050D8, symSize: 0x30 }
  - { offsetInCU: 0xFD67, offset: 0xFD67, size: 0x8, addend: 0x0, symName: __ZNSt3__112__to_addressB8ue170006ItEEPT_S2_, symObjAddr: 0x3F6C, symBinAddr: 0x100005768, symSize: 0x14 }
  - { offsetInCU: 0xFD9C, offset: 0xFD9C, size: 0x8, addend: 0x0, symName: __ZNSt3__119__libcpp_deallocateB8ue170006EPvmm, symObjAddr: 0x40D8, symBinAddr: 0x1000058D4, symSize: 0x30 }
  - { offsetInCU: 0xFDE4, offset: 0xFDE4, size: 0x8, addend: 0x0, symName: __ZNSt3__127__do_deallocate_handle_sizeB8ue170006IJEEEvPvmDpT_, symObjAddr: 0x4108, symBinAddr: 0x100005904, symSize: 0x28 }
  - { offsetInCU: 0xFE22, offset: 0xFE22, size: 0x8, addend: 0x0, symName: __ZNSt3__124__libcpp_operator_deleteB8ue170006IJPvEEEvDpT_, symObjAddr: 0x4130, symBinAddr: 0x10000592C, symSize: 0x24 }
  - { offsetInCU: 0xFE57, offset: 0xFE57, size: 0x8, addend: 0x0, symName: __ZNSt3__112__to_addressB8ue170006IPtEEPT_S3_, symObjAddr: 0x43B4, symBinAddr: 0x100005BB0, symSize: 0x14 }
  - { offsetInCU: 0xFEBF, offset: 0xFEBF, size: 0x8, addend: 0x0, symName: __ZNSt3__112__to_addressB8ue170006IKcEEPT_S3_, symObjAddr: 0x4C24, symBinAddr: 0x100006420, symSize: 0x14 }
  - { offsetInCU: 0xFF27, offset: 0xFF27, size: 0x8, addend: 0x0, symName: __ZNSt3__118__constexpr_strlenB8ue170006EPKc, symObjAddr: 0x4D7C, symBinAddr: 0x100006578, symSize: 0x24 }
  - { offsetInCU: 0xFF53, offset: 0xFF53, size: 0x8, addend: 0x0, symName: __ZNSt3__122__make_exception_guardB8ue170006INS_6vectorINS_12basic_stringIcNS_11char_traitsIcEENS_9allocatorIcEEEENS5_IS7_EEE16__destroy_vectorEEENS_28__exception_guard_exceptionsIT_EESC_, symObjAddr: 0x4EFC, symBinAddr: 0x1000066F8, symSize: 0x40 }
  - { offsetInCU: 0xFF88, offset: 0xFF88, size: 0x8, addend: 0x0, symName: __ZNSt3__119__allocate_at_leastB8ue170006INS_9allocatorINS_12basic_stringIcNS_11char_traitsIcEENS1_IcEEEEEEEENS_19__allocation_resultINS_16allocator_traitsIT_E7pointerEEERSA_m, symObjAddr: 0x530C, symBinAddr: 0x100006B08, symSize: 0x40 }
  - { offsetInCU: 0xFFCB, offset: 0xFFCB, size: 0x8, addend: 0x0, symName: __ZNSt3__13minB8ue170006ImEERKT_S3_S3_, symObjAddr: 0x5464, symBinAddr: 0x100006C60, symSize: 0x2C }
  - { offsetInCU: 0x1020F, offset: 0x1020F, size: 0x8, addend: 0x0, symName: __ZNSt3__13minB8ue170006ImNS_6__lessIvvEEEERKT_S5_S5_T0_, symObjAddr: 0x54F0, symBinAddr: 0x100006CEC, symSize: 0x54 }
  - { offsetInCU: 0x102E0, offset: 0x102E0, size: 0x8, addend: 0x0, symName: __ZNSt3__120__throw_length_errorB8ue170006EPKc, symObjAddr: 0x55D0, symBinAddr: 0x100006DCC, symSize: 0x64 }
  - { offsetInCU: 0x10309, offset: 0x10309, size: 0x8, addend: 0x0, symName: __ZNSt3__117__libcpp_allocateB8ue170006Emm, symObjAddr: 0x5744, symBinAddr: 0x100006F40, symSize: 0x28 }
  - { offsetInCU: 0x10346, offset: 0x10346, size: 0x8, addend: 0x0, symName: __ZNSt3__121__libcpp_operator_newB8ue170006IJmEEEPvDpT_, symObjAddr: 0x576C, symBinAddr: 0x100006F68, symSize: 0x24 }
  - { offsetInCU: 0x1037F, offset: 0x1037F, size: 0x8, addend: 0x0, symName: __ZNSt3__112__to_addressB8ue170006INS_12basic_stringIcNS_11char_traitsIcEENS_9allocatorIcEEEEEEPT_S8_, symObjAddr: 0x5888, symBinAddr: 0x100007084, symSize: 0x14 }
  - { offsetInCU: 0x103B4, offset: 0x103B4, size: 0x8, addend: 0x0, symName: __ZNSt3__130__uninitialized_allocator_copyB8ue170006INS_9allocatorINS_12basic_stringIcNS_11char_traitsIcEENS1_IcEEEEEEPKS6_S9_PS6_EET2_RT_T0_T1_SB_, symObjAddr: 0x5938, symBinAddr: 0x100007134, symSize: 0x80 }
  - { offsetInCU: 0x10451, offset: 0x10451, size: 0x8, addend: 0x0, symName: __ZNSt3__114__unwrap_rangeB8ue170006IPKNS_12basic_stringIcNS_11char_traitsIcEENS_9allocatorIcEEEES8_EENS_4pairIT0_SA_EET_SC_, symObjAddr: 0x5A30, symBinAddr: 0x10000722C, symSize: 0x60 }
  - { offsetInCU: 0x1049D, offset: 0x1049D, size: 0x8, addend: 0x0, symName: __ZNSt3__135__uninitialized_allocator_copy_implB8ue170006INS_9allocatorINS_12basic_stringIcNS_11char_traitsIcEENS1_IcEEEEEEPKS6_S9_PS6_EET2_RT_T0_T1_SB_, symObjAddr: 0x5A90, symBinAddr: 0x10000728C, symSize: 0xF4 }
  - { offsetInCU: 0x1053B, offset: 0x1053B, size: 0x8, addend: 0x0, symName: __ZNSt3__113__unwrap_iterB8ue170006IPNS_12basic_stringIcNS_11char_traitsIcEENS_9allocatorIcEEEENS_18__unwrap_iter_implIS7_Lb1EEELi0EEEDTclsrT0_8__unwrapclsr3stdE7declvalIT_EEEESB_, symObjAddr: 0x5B84, symBinAddr: 0x100007380, symSize: 0x24 }
  - { offsetInCU: 0x1057F, offset: 0x1057F, size: 0x8, addend: 0x0, symName: __ZNSt3__113__rewrap_iterB8ue170006IPNS_12basic_stringIcNS_11char_traitsIcEENS_9allocatorIcEEEES7_NS_18__unwrap_iter_implIS7_Lb1EEEEET_SA_T0_, symObjAddr: 0x5BA8, symBinAddr: 0x1000073A4, symSize: 0x3C }
  - { offsetInCU: 0x105D4, offset: 0x105D4, size: 0x8, addend: 0x0, symName: __ZNSt3__19make_pairB8ue170006IPKNS_12basic_stringIcNS_11char_traitsIcEENS_9allocatorIcEEEES8_EENS_4pairINS_18__unwrap_ref_decayIT_E4typeENSA_IT0_E4typeEEEOSB_OSE_, symObjAddr: 0x5BE4, symBinAddr: 0x1000073E0, symSize: 0x38 }
  - { offsetInCU: 0x10623, offset: 0x10623, size: 0x8, addend: 0x0, symName: __ZNSt3__113__unwrap_iterB8ue170006IPKNS_12basic_stringIcNS_11char_traitsIcEENS_9allocatorIcEEEENS_18__unwrap_iter_implIS8_Lb1EEELi0EEEDTclsrT0_8__unwrapclsr3stdE7declvalIT_EEEESC_, symObjAddr: 0x5C1C, symBinAddr: 0x100007418, symSize: 0x24 }
  - { offsetInCU: 0x1078E, offset: 0x1078E, size: 0x8, addend: 0x0, symName: __ZNSt3__112__to_addressB8ue170006IKNS_12basic_stringIcNS_11char_traitsIcEENS_9allocatorIcEEEEEEPT_S9_, symObjAddr: 0x5CD4, symBinAddr: 0x1000074D0, symSize: 0x14 }
  - { offsetInCU: 0x107C3, offset: 0x107C3, size: 0x8, addend: 0x0, symName: __ZNSt3__122__make_exception_guardB8ue170006INS_29_AllocatorDestroyRangeReverseINS_9allocatorINS_12basic_stringIcNS_11char_traitsIcEENS2_IcEEEEEEPS7_EEEENS_28__exception_guard_exceptionsIT_EESC_, symObjAddr: 0x5CE8, symBinAddr: 0x1000074E4, symSize: 0x4C }
  - { offsetInCU: 0x107F9, offset: 0x107F9, size: 0x8, addend: 0x0, symName: __ZNSt3__119__allocator_destroyB8ue170006INS_9allocatorINS_12basic_stringIcNS_11char_traitsIcEENS1_IcEEEEEENS_16reverse_iteratorIPS6_EESA_EEvRT_T0_T1_, symObjAddr: 0x5F78, symBinAddr: 0x100007774, symSize: 0x70 }
  - { offsetInCU: 0x1085C, offset: 0x1085C, size: 0x8, addend: 0x0, symName: __ZNSt3__1neB8ue170006IPNS_12basic_stringIcNS_11char_traitsIcEENS_9allocatorIcEEEES7_EEbRKNS_16reverse_iteratorIT_EERKNS8_IT0_EE, symObjAddr: 0x601C, symBinAddr: 0x100007818, symSize: 0x48 }
  - { offsetInCU: 0x108A8, offset: 0x108A8, size: 0x8, addend: 0x0, symName: __ZNSt3__112__to_addressB8ue170006INS_16reverse_iteratorIPNS_12basic_stringIcNS_11char_traitsIcEENS_9allocatorIcEEEEEEvEEu7__decayIDTclsr19__to_address_helperIT_EE6__callclsr3stdE7declvalIRKSA_EEEEESC_, symObjAddr: 0x6090, symBinAddr: 0x10000788C, symSize: 0x24 }
  - { offsetInCU: 0x10976, offset: 0x10976, size: 0x8, addend: 0x0, symName: __ZNSt3__18distanceB8ue170006INS_16__deque_iteratorItPKtRS2_PKS3_lLl2048EEEEENS_15iterator_traitsIT_E15difference_typeES9_S9_, symObjAddr: 0x70E4, symBinAddr: 0x1000088E0, symSize: 0x4C }
  - { offsetInCU: 0x109B9, offset: 0x109B9, size: 0x8, addend: 0x0, symName: __ZNSt3__1neB8ue170006ERKNS_5dequeItNS_9allocatorItEEE13__deque_rangeES6_, symObjAddr: 0x793C, symBinAddr: 0x100009138, symSize: 0x34 }
  - { offsetInCU: 0x109F6, offset: 0x109F6, size: 0x8, addend: 0x0, symName: __ZNSt3__13maxB8ue170006ImEERKT_S3_S3_, symObjAddr: 0x83B4, symBinAddr: 0x100009BB0, symSize: 0x2C }
  - { offsetInCU: 0x10A39, offset: 0x10A39, size: 0x8, addend: 0x0, symName: __ZNSt3__14swapB8ue170006IPPtEENS_9enable_ifIXaasr21is_move_constructibleIT_EE5valuesr18is_move_assignableIS4_EE5valueEvE4typeERS4_S7_, symObjAddr: 0x8B8C, symBinAddr: 0x10000A388, symSize: 0x3C }
  - { offsetInCU: 0x10A8A, offset: 0x10A8A, size: 0x8, addend: 0x0, symName: __ZNSt3__14moveB8ue170006IPPtS2_EET0_T_S4_S3_, symObjAddr: 0x8C44, symBinAddr: 0x10000A440, symSize: 0x40 }
  - { offsetInCU: 0x10AE4, offset: 0x10AE4, size: 0x8, addend: 0x0, symName: __ZNSt3__16__moveB8ue170006INS_17_ClassicAlgPolicyEPPtS3_S3_EENS_4pairIT0_T2_EES5_T1_S6_, symObjAddr: 0x8D4C, symBinAddr: 0x10000A548, symSize: 0x44 }
  - { offsetInCU: 0x10B50, offset: 0x10B50, size: 0x8, addend: 0x0, symName: __ZNSt3__123__dispatch_copy_or_moveB8ue170006INS_17_ClassicAlgPolicyENS_11__move_loopIS1_EENS_14__move_trivialEPPtS6_S6_EENS_4pairIT2_T4_EES8_T3_S9_, symObjAddr: 0x8D90, symBinAddr: 0x10000A58C, symSize: 0x44 }
  - { offsetInCU: 0x10BCE, offset: 0x10BCE, size: 0x8, addend: 0x0, symName: __ZNSt3__121__unwrap_and_dispatchB8ue170006INS_10__overloadINS_11__move_loopINS_17_ClassicAlgPolicyEEENS_14__move_trivialEEEPPtS8_S8_Li0EEENS_4pairIT0_T2_EESA_T1_SB_, symObjAddr: 0x8DD4, symBinAddr: 0x10000A5D0, symSize: 0xB4 }
  - { offsetInCU: 0x10C5C, offset: 0x10C5C, size: 0x8, addend: 0x0, symName: __ZNSt3__114__unwrap_rangeB8ue170006IPPtS2_EENS_4pairIT0_S4_EET_S6_, symObjAddr: 0x8E88, symBinAddr: 0x10000A684, symSize: 0x60 }
  - { offsetInCU: 0x10E20, offset: 0x10E20, size: 0x8, addend: 0x0, symName: __ZNSt3__113__unwrap_iterB8ue170006IPPtNS_18__unwrap_iter_implIS2_Lb1EEELi0EEEDTclsrT0_8__unwrapclsr3stdE7declvalIT_EEEES6_, symObjAddr: 0x8F30, symBinAddr: 0x10000A72C, symSize: 0x24 }
  - { offsetInCU: 0x10E64, offset: 0x10E64, size: 0x8, addend: 0x0, symName: __ZNSt3__19make_pairB8ue170006IPPtS2_EENS_4pairINS_18__unwrap_ref_decayIT_E4typeENS4_IT0_E4typeEEEOS5_OS8_, symObjAddr: 0x8F54, symBinAddr: 0x10000A750, symSize: 0x38 }
  - { offsetInCU: 0x10EB3, offset: 0x10EB3, size: 0x8, addend: 0x0, symName: __ZNSt3__114__rewrap_rangeB8ue170006IPPtS2_EET_S3_T0_, symObjAddr: 0x8F8C, symBinAddr: 0x10000A788, symSize: 0x2C }
  - { offsetInCU: 0x10EFF, offset: 0x10EFF, size: 0x8, addend: 0x0, symName: __ZNSt3__113__rewrap_iterB8ue170006IPPtS2_NS_18__unwrap_iter_implIS2_Lb1EEEEET_S5_T0_, symObjAddr: 0x8FB8, symBinAddr: 0x10000A7B4, symSize: 0x3C }
  - { offsetInCU: 0x10F54, offset: 0x10F54, size: 0x8, addend: 0x0, symName: __ZNSt3__119__copy_trivial_implB8ue170006IPtS1_EENS_4pairIPT_PT0_EES4_S4_S6_, symObjAddr: 0x8FF4, symBinAddr: 0x10000A7F0, symSize: 0x80 }
  - { offsetInCU: 0x10FBC, offset: 0x10FBC, size: 0x8, addend: 0x0, symName: __ZNSt3__119__constexpr_memmoveB8ue170006IPtS1_Li0EEEPT_S3_PT0_NS_15__element_countE, symObjAddr: 0x9074, symBinAddr: 0x10000A870, symSize: 0x64 }
  - { offsetInCU: 0x1102A, offset: 0x1102A, size: 0x8, addend: 0x0, symName: __ZNSt3__19make_pairB8ue170006IRPPtS2_EENS_4pairINS_18__unwrap_ref_decayIT_E4typeENS5_IT0_E4typeEEEOS6_OS9_, symObjAddr: 0x90D8, symBinAddr: 0x10000A8D4, symSize: 0x38 }
  - { offsetInCU: 0x110CC, offset: 0x110CC, size: 0x8, addend: 0x0, symName: __ZNSt3__18distanceB8ue170006INS_13move_iteratorIPPtEEEENS_15iterator_traitsIT_E15difference_typeES6_S6_, symObjAddr: 0x9340, symBinAddr: 0x10000AB3C, symSize: 0x3C }
  - { offsetInCU: 0x1110F, offset: 0x1110F, size: 0x8, addend: 0x0, symName: __ZNSt3__110__distanceB8ue170006INS_13move_iteratorIPPtEEEENS_15iterator_traitsIT_E15difference_typeES6_S6_NS_26random_access_iterator_tagE, symObjAddr: 0x9544, symBinAddr: 0x10000AD40, symSize: 0x30 }
  - { offsetInCU: 0x1115D, offset: 0x1115D, size: 0x8, addend: 0x0, symName: __ZNSt3__1miB8ue170006IPPtS2_EEDTmicldtfp_4baseEcldtfp0_4baseEERKNS_13move_iteratorIT_EERKNS4_IT0_EE, symObjAddr: 0x9574, symBinAddr: 0x10000AD70, symSize: 0x48 }
  - { offsetInCU: 0x111AC, offset: 0x111AC, size: 0x8, addend: 0x0, symName: __ZNSt3__113move_backwardB8ue170006IPPtS2_EET0_T_S4_S3_, symObjAddr: 0x96AC, symBinAddr: 0x10000AEA8, symSize: 0x40 }
  - { offsetInCU: 0x11206, offset: 0x11206, size: 0x8, addend: 0x0, symName: __ZNSt3__115__move_backwardB8ue170006INS_17_ClassicAlgPolicyEPPtS3_S3_EENS_4pairIT0_T2_EES5_T1_S6_, symObjAddr: 0x96EC, symBinAddr: 0x10000AEE8, symSize: 0x44 }
  - { offsetInCU: 0x11272, offset: 0x11272, size: 0x8, addend: 0x0, symName: __ZNSt3__123__dispatch_copy_or_moveB8ue170006INS_17_ClassicAlgPolicyENS_20__move_backward_loopIS1_EENS_23__move_backward_trivialEPPtS6_S6_EENS_4pairIT2_T4_EES8_T3_S9_, symObjAddr: 0x9730, symBinAddr: 0x10000AF2C, symSize: 0x44 }
  - { offsetInCU: 0x112F0, offset: 0x112F0, size: 0x8, addend: 0x0, symName: __ZNSt3__121__unwrap_and_dispatchB8ue170006INS_10__overloadINS_20__move_backward_loopINS_17_ClassicAlgPolicyEEENS_23__move_backward_trivialEEEPPtS8_S8_Li0EEENS_4pairIT0_T2_EESA_T1_SB_, symObjAddr: 0x9774, symBinAddr: 0x10000AF70, symSize: 0xB4 }
  - { offsetInCU: 0x113C4, offset: 0x113C4, size: 0x8, addend: 0x0, symName: __ZNSt3__128__copy_backward_trivial_implB8ue170006IPtS1_EENS_4pairIPT_PT0_EES4_S4_S6_, symObjAddr: 0x9870, symBinAddr: 0x10000B06C, symSize: 0x90 }
  - { offsetInCU: 0x1142C, offset: 0x1142C, size: 0x8, addend: 0x0, symName: __ZNSt3__19make_pairB8ue170006IRPPtS3_EENS_4pairINS_18__unwrap_ref_decayIT_E4typeENS5_IT0_E4typeEEEOS6_OS9_, symObjAddr: 0x9900, symBinAddr: 0x10000B0FC, symSize: 0x38 }
  - { offsetInCU: 0x1147B, offset: 0x1147B, size: 0x8, addend: 0x0, symName: __ZNSt3__13maxB8ue170006ImNS_6__lessIvvEEEERKT_S5_S5_T0_, symObjAddr: 0x99A8, symBinAddr: 0x10000B1A4, symSize: 0x54 }
  - { offsetInCU: 0x114D5, offset: 0x114D5, size: 0x8, addend: 0x0, symName: __ZNSt3__119__allocate_at_leastB8ue170006INS_9allocatorIPtEEEENS_19__allocation_resultINS_16allocator_traitsIT_E7pointerEEERS6_m, symObjAddr: 0x9B0C, symBinAddr: 0x10000B308, symSize: 0x40 }
  - { offsetInCU: 0x11518, offset: 0x11518, size: 0x8, addend: 0x0, symName: __ZNSt3__1eqB8ue170006ERKNS_5dequeItNS_9allocatorItEEE13__deque_rangeES6_, symObjAddr: 0x9FD0, symBinAddr: 0x10000B7CC, symSize: 0x30 }
  - { offsetInCU: 0x11555, offset: 0x11555, size: 0x8, addend: 0x0, symName: __ZNSt3__110__distanceB8ue170006INS_16__deque_iteratorItPKtRS2_PKS3_lLl2048EEEEENS_15iterator_traitsIT_E15difference_typeES9_S9_NS_26random_access_iterator_tagE, symObjAddr: 0xA134, symBinAddr: 0x10000B930, symSize: 0x38 }
  - { offsetInCU: 0x115A3, offset: 0x115A3, size: 0x8, addend: 0x0, symName: __ZNSt3__1miB8ue170006ERKNS_16__deque_iteratorItPKtRS1_PKS2_lLl2048EEES8_, symObjAddr: 0xA16C, symBinAddr: 0x10000B968, symSize: 0xA8 }
  - { offsetInCU: 0x115E0, offset: 0x115E0, size: 0x8, addend: 0x0, symName: __ZNSt3__1neB8ue170006ERKNS_16__deque_iteratorItPKtRS1_PKS2_lLl2048EEES8_, symObjAddr: 0xA214, symBinAddr: 0x10000BA10, symSize: 0x34 }
  - { offsetInCU: 0x1161D, offset: 0x1161D, size: 0x8, addend: 0x0, symName: __ZNSt3__1eqB8ue170006ERKNS_16__deque_iteratorItPKtRS1_PKS2_lLl2048EEES8_, symObjAddr: 0xA248, symBinAddr: 0x10000BA44, symSize: 0x30 }
  - { offsetInCU: 0x11AB3, offset: 0x11AB3, size: 0x8, addend: 0x0, symName: __ZNSt3__14copyB8ue170006INS_16__deque_iteratorItPKtRS2_PKS3_lLl2048EEENS1_ItPtRtPS8_lLl2048EEEEET0_T_SD_SC_, symObjAddr: 0xAD80, symBinAddr: 0x10000C57C, symSize: 0x78 }
  - { offsetInCU: 0x11B0D, offset: 0x11B0D, size: 0x8, addend: 0x0, symName: __ZNSt3__16__copyB8ue170006INS_17_ClassicAlgPolicyENS_16__deque_iteratorItPKtRS3_PKS4_lLl2048EEES8_NS2_ItPtRtPS9_lLl2048EEEEENS_4pairIT0_T2_EESE_T1_SF_, symObjAddr: 0xB160, symBinAddr: 0x10000C95C, symSize: 0x64 }
  - { offsetInCU: 0x11B79, offset: 0x11B79, size: 0x8, addend: 0x0, symName: __ZNSt3__123__dispatch_copy_or_moveB8ue170006INS_17_ClassicAlgPolicyENS_11__copy_loopIS1_EENS_14__copy_trivialENS_16__deque_iteratorItPKtRS6_PKS7_lLl2048EEESB_NS5_ItPtRtPSC_lLl2048EEEEENS_4pairIT2_T4_EESH_T3_SI_, symObjAddr: 0xB1C4, symBinAddr: 0x10000C9C0, symSize: 0x64 }
  - { offsetInCU: 0x11BF7, offset: 0x11BF7, size: 0x8, addend: 0x0, symName: __ZNSt3__121__unwrap_and_dispatchB8ue170006INS_10__overloadINS_11__copy_loopINS_17_ClassicAlgPolicyEEENS_14__copy_trivialEEENS_16__deque_iteratorItPKtRS8_PKS9_lLl2048EEESD_NS7_ItPtRtPSE_lLl2048EEELi0EEENS_4pairIT0_T2_EESJ_T1_SK_, symObjAddr: 0xB228, symBinAddr: 0x10000CA24, symSize: 0x12C }
  - { offsetInCU: 0x11C87, offset: 0x11C87, size: 0x8, addend: 0x0, symName: __ZNSt3__114__unwrap_rangeB8ue170006INS_16__deque_iteratorItPKtRS2_PKS3_lLl2048EEES7_EENS_4pairIT0_S9_EET_SB_, symObjAddr: 0xB354, symBinAddr: 0x10000CB50, symSize: 0x84 }
  - { offsetInCU: 0x11DD6, offset: 0x11DD6, size: 0x8, addend: 0x0, symName: __ZNSt3__113__unwrap_iterB8ue170006INS_16__deque_iteratorItPtRtPS2_lLl2048EEENS_18__unwrap_iter_implIS5_Lb0EEELi0EEEDTclsrT0_8__unwrapclsr3stdE7declvalIT_EEEES9_, symObjAddr: 0xB460, symBinAddr: 0x10000CC5C, symSize: 0x44 }
  - { offsetInCU: 0x11E1A, offset: 0x11E1A, size: 0x8, addend: 0x0, symName: __ZNSt3__19make_pairB8ue170006INS_16__deque_iteratorItPKtRS2_PKS3_lLl2048EEENS1_ItPtRtPS8_lLl2048EEEEENS_4pairINS_18__unwrap_ref_decayIT_E4typeENSD_IT0_E4typeEEEOSE_OSH_, symObjAddr: 0xB4A4, symBinAddr: 0x10000CCA0, symSize: 0x38 }
  - { offsetInCU: 0x11E69, offset: 0x11E69, size: 0x8, addend: 0x0, symName: __ZNSt3__114__rewrap_rangeB8ue170006INS_16__deque_iteratorItPKtRS2_PKS3_lLl2048EEES7_EET_S8_T0_, symObjAddr: 0xB4DC, symBinAddr: 0x10000CCD8, symSize: 0x5C }
  - { offsetInCU: 0x11EB5, offset: 0x11EB5, size: 0x8, addend: 0x0, symName: __ZNSt3__113__rewrap_iterB8ue170006INS_16__deque_iteratorItPtRtPS2_lLl2048EEES5_NS_18__unwrap_iter_implIS5_Lb0EEEEET_S8_T0_, symObjAddr: 0xB538, symBinAddr: 0x10000CD34, symSize: 0x74 }
  - { offsetInCU: 0x11F0A, offset: 0x11F0A, size: 0x8, addend: 0x0, symName: __ZNSt3__19make_pairB8ue170006INS_16__deque_iteratorItPKtRS2_PKS3_lLl2048EEES7_EENS_4pairINS_18__unwrap_ref_decayIT_E4typeENS9_IT0_E4typeEEEOSA_OSD_, symObjAddr: 0xB5AC, symBinAddr: 0x10000CDA8, symSize: 0x38 }
  - { offsetInCU: 0x11F59, offset: 0x11F59, size: 0x8, addend: 0x0, symName: __ZNSt3__113__unwrap_iterB8ue170006INS_16__deque_iteratorItPKtRS2_PKS3_lLl2048EEENS_18__unwrap_iter_implIS7_Lb0EEELi0EEEDTclsrT0_8__unwrapclsr3stdE7declvalIT_EEEESB_, symObjAddr: 0xB5E4, symBinAddr: 0x10000CDE0, symSize: 0x44 }
  - { offsetInCU: 0x120BA, offset: 0x120BA, size: 0x8, addend: 0x0, symName: __ZNSt3__118__for_each_segmentB8ue170006INS_16__deque_iteratorItPKtRS2_PKS3_lLl2048EEENS_11__copy_loopINS_17_ClassicAlgPolicyEE12_CopySegmentIS7_NS1_ItPtRtPSC_lLl2048EEEEEEEvT_SH_T0_, symObjAddr: 0xB6BC, symBinAddr: 0x10000CEB8, symSize: 0x174 }
  - { offsetInCU: 0x1212D, offset: 0x1212D, size: 0x8, addend: 0x0, symName: __ZNSt3__19make_pairB8ue170006IRNS_16__deque_iteratorItPKtRS2_PKS3_lLl2048EEENS1_ItPtRtPS9_lLl2048EEEEENS_4pairINS_18__unwrap_ref_decayIT_E4typeENSE_IT0_E4typeEEEOSF_OSI_, symObjAddr: 0xB864, symBinAddr: 0x10000D060, symSize: 0x38 }
  - { offsetInCU: 0x1217C, offset: 0x1217C, size: 0x8, addend: 0x0, symName: __ZNSt3__16__copyB8ue170006INS_17_ClassicAlgPolicyEPKtS3_NS_16__deque_iteratorItPtRtPS5_lLl2048EEEEENS_4pairIT0_T2_EESA_T1_SB_, symObjAddr: 0xB968, symBinAddr: 0x10000D164, symSize: 0x44 }
  - { offsetInCU: 0x121E4, offset: 0x121E4, size: 0x8, addend: 0x0, symName: __ZNSt3__123__dispatch_copy_or_moveB8ue170006INS_17_ClassicAlgPolicyENS_11__copy_loopIS1_EENS_14__copy_trivialEPKtS6_NS_16__deque_iteratorItPtRtPS8_lLl2048EEEEENS_4pairIT2_T4_EESD_T3_SE_, symObjAddr: 0xB9AC, symBinAddr: 0x10000D1A8, symSize: 0x44 }
  - { offsetInCU: 0x12262, offset: 0x12262, size: 0x8, addend: 0x0, symName: __ZNSt3__121__unwrap_and_dispatchB8ue170006INS_10__overloadINS_11__copy_loopINS_17_ClassicAlgPolicyEEENS_14__copy_trivialEEEPKtS8_NS_16__deque_iteratorItPtRtPSA_lLl2048EEELi0EEENS_4pairIT0_T2_EESF_T1_SG_, symObjAddr: 0xB9F0, symBinAddr: 0x10000D1EC, symSize: 0xF0 }
  - { offsetInCU: 0x122F1, offset: 0x122F1, size: 0x8, addend: 0x0, symName: __ZNSt3__114__unwrap_rangeB8ue170006IPKtS2_EENS_4pairIT0_S4_EET_S6_, symObjAddr: 0xBAE0, symBinAddr: 0x10000D2DC, symSize: 0x60 }
  - { offsetInCU: 0x12411, offset: 0x12411, size: 0x8, addend: 0x0, symName: __ZNSt3__19make_pairB8ue170006IPKtNS_16__deque_iteratorItPtRtPS4_lLl2048EEEEENS_4pairINS_18__unwrap_ref_decayIT_E4typeENS9_IT0_E4typeEEEOSA_OSD_, symObjAddr: 0xBCA4, symBinAddr: 0x10000D4A0, symSize: 0x38 }
  - { offsetInCU: 0x12460, offset: 0x12460, size: 0x8, addend: 0x0, symName: __ZNSt3__114__rewrap_rangeB8ue170006IPKtS2_EET_S3_T0_, symObjAddr: 0xBCDC, symBinAddr: 0x10000D4D8, symSize: 0x2C }
  - { offsetInCU: 0x124AC, offset: 0x124AC, size: 0x8, addend: 0x0, symName: __ZNSt3__19make_pairB8ue170006IPKtS2_EENS_4pairINS_18__unwrap_ref_decayIT_E4typeENS4_IT0_E4typeEEEOS5_OS8_, symObjAddr: 0xBD08, symBinAddr: 0x10000D504, symSize: 0x38 }
  - { offsetInCU: 0x124FB, offset: 0x124FB, size: 0x8, addend: 0x0, symName: __ZNSt3__113__unwrap_iterB8ue170006IPKtNS_18__unwrap_iter_implIS2_Lb1EEELi0EEEDTclsrT0_8__unwrapclsr3stdE7declvalIT_EEEES6_, symObjAddr: 0xBD40, symBinAddr: 0x10000D53C, symSize: 0x24 }
  - { offsetInCU: 0x12666, offset: 0x12666, size: 0x8, addend: 0x0, symName: __ZNSt3__112__to_addressB8ue170006IKtEEPT_S3_, symObjAddr: 0xBDF8, symBinAddr: 0x10000D5F4, symSize: 0x14 }
  - { offsetInCU: 0x12747, offset: 0x12747, size: 0x8, addend: 0x0, symName: __ZNSt3__13minB8ue170006IlEERKT_S3_S3_, symObjAddr: 0xBE58, symBinAddr: 0x10000D654, symSize: 0x2C }
  - { offsetInCU: 0x1278A, offset: 0x1278A, size: 0x8, addend: 0x0, symName: __ZNSt3__16__copyB8ue170006INS_17_ClassicAlgPolicyEPKtS3_PtEENS_4pairIT0_T2_EES6_T1_S7_, symObjAddr: 0xBE84, symBinAddr: 0x10000D680, symSize: 0x44 }
  - { offsetInCU: 0x127F2, offset: 0x127F2, size: 0x8, addend: 0x0, symName: __ZNSt3__13minB8ue170006IlNS_6__lessIvvEEEERKT_S5_S5_T0_, symObjAddr: 0xBF64, symBinAddr: 0x10000D760, symSize: 0x54 }
  - { offsetInCU: 0x1284C, offset: 0x1284C, size: 0x8, addend: 0x0, symName: __ZNSt3__123__dispatch_copy_or_moveB8ue170006INS_17_ClassicAlgPolicyENS_11__copy_loopIS1_EENS_14__copy_trivialEPKtS6_PtEENS_4pairIT2_T4_EES9_T3_SA_, symObjAddr: 0xBFEC, symBinAddr: 0x10000D7E8, symSize: 0x44 }
  - { offsetInCU: 0x128CA, offset: 0x128CA, size: 0x8, addend: 0x0, symName: __ZNSt3__121__unwrap_and_dispatchB8ue170006INS_10__overloadINS_11__copy_loopINS_17_ClassicAlgPolicyEEENS_14__copy_trivialEEEPKtS8_PtLi0EEENS_4pairIT0_T2_EESB_T1_SC_, symObjAddr: 0xC030, symBinAddr: 0x10000D82C, symSize: 0xB4 }
  - { offsetInCU: 0x12AA1, offset: 0x12AA1, size: 0x8, addend: 0x0, symName: __ZNSt3__113__unwrap_iterB8ue170006IPtNS_18__unwrap_iter_implIS1_Lb1EEELi0EEEDTclsrT0_8__unwrapclsr3stdE7declvalIT_EEEES5_, symObjAddr: 0xC12C, symBinAddr: 0x10000D928, symSize: 0x24 }
  - { offsetInCU: 0x12AE5, offset: 0x12AE5, size: 0x8, addend: 0x0, symName: __ZNSt3__19make_pairB8ue170006IPKtPtEENS_4pairINS_18__unwrap_ref_decayIT_E4typeENS5_IT0_E4typeEEEOS6_OS9_, symObjAddr: 0xC150, symBinAddr: 0x10000D94C, symSize: 0x38 }
  - { offsetInCU: 0x12B34, offset: 0x12B34, size: 0x8, addend: 0x0, symName: __ZNSt3__113__rewrap_iterB8ue170006IPtS1_NS_18__unwrap_iter_implIS1_Lb1EEEEET_S4_T0_, symObjAddr: 0xC188, symBinAddr: 0x10000D984, symSize: 0x3C }
  - { offsetInCU: 0x12B89, offset: 0x12B89, size: 0x8, addend: 0x0, symName: __ZNSt3__119__copy_trivial_implB8ue170006IKttEENS_4pairIPT_PT0_EES4_S4_S6_, symObjAddr: 0xC1C4, symBinAddr: 0x10000D9C0, symSize: 0x80 }
  - { offsetInCU: 0x12BF1, offset: 0x12BF1, size: 0x8, addend: 0x0, symName: __ZNSt3__119__constexpr_memmoveB8ue170006ItKtLi0EEEPT_S3_PT0_NS_15__element_countE, symObjAddr: 0xC244, symBinAddr: 0x10000DA40, symSize: 0x64 }
  - { offsetInCU: 0x12C5F, offset: 0x12C5F, size: 0x8, addend: 0x0, symName: __ZNSt3__19make_pairB8ue170006IRPKtPtEENS_4pairINS_18__unwrap_ref_decayIT_E4typeENS6_IT0_E4typeEEEOS7_OSA_, symObjAddr: 0xC2A8, symBinAddr: 0x10000DAA4, symSize: 0x38 }
  - { offsetInCU: 0x12D01, offset: 0x12D01, size: 0x8, addend: 0x0, symName: __ZNSt3__113__rewrap_iterB8ue170006IPKtS2_NS_18__unwrap_iter_implIS2_Lb1EEEEET_S5_T0_, symObjAddr: 0xC4A4, symBinAddr: 0x10000DCA0, symSize: 0x3C }
  - { offsetInCU: 0x12D9E, offset: 0x12D9E, size: 0x8, addend: 0x0, symName: __ZNSt3__113__rewrap_iterB8ue170006INS_16__deque_iteratorItPKtRS2_PKS3_lLl2048EEES7_NS_18__unwrap_iter_implIS7_Lb0EEEEET_SA_T0_, symObjAddr: 0xC654, symBinAddr: 0x10000DE50, symSize: 0x74 }
  - { offsetInCU: 0x12DF3, offset: 0x12DF3, size: 0x8, addend: 0x0, symName: __ZNSt3__115allocate_sharedB8ue170006ItNS_9allocatorItEEJRtEvEENS_10shared_ptrIT_EERKT0_DpOT1_, symObjAddr: 0xC978, symBinAddr: 0x10000E174, symSize: 0x98 }
  - { offsetInCU: 0x1319E, offset: 0x1319E, size: 0x8, addend: 0x0, symName: __ZNSt3__134__libcpp_atomic_refcount_decrementB8ue170006IlEET_RS1_, symObjAddr: 0xD340, symBinAddr: 0x10000EB3C, symSize: 0x30 }
  - { offsetInCU: 0x131D3, offset: 0x131D3, size: 0x8, addend: 0x0, symName: __ZNSt3__115allocate_sharedB8ue170006ItNS_9allocatorItEEJiEvEENS_10shared_ptrIT_EERKT0_DpOT1_, symObjAddr: 0xD558, symBinAddr: 0x10000ED54, symSize: 0x98 }
  - { offsetInCU: 0x1324C, offset: 0x1324C, size: 0x8, addend: 0x0, symName: __ZNSt3__19use_facetB8ue170006INS_5ctypeIcEEEERKT_RKNS_6localeE, symObjAddr: 0xD868, symBinAddr: 0x10000F064, symSize: 0x2C }
  - { offsetInCU: 0x13719, offset: 0x13719, size: 0x8, addend: 0x0, symName: __ZNSt3__116__pad_and_outputB8ue170006IcNS_11char_traitsIcEEEENS_19ostreambuf_iteratorIT_T0_EES6_PKS4_S8_S8_RNS_8ios_baseES4_, symObjAddr: 0xDAD4, symBinAddr: 0x10000F2D0, symSize: 0x240 }
  - { offsetInCU: 0x137E8, offset: 0x137E8, size: 0x8, addend: 0x0, symName: __ZNSt3__110__str_findB8ue170006IcmNS_11char_traitsIcEELm18446744073709551615EEET0_PKT_S3_S6_S3_S3_, symObjAddr: 0xE3D0, symBinAddr: 0x10000FBCC, symSize: 0xE4 }
  - { offsetInCU: 0x1388F, offset: 0x1388F, size: 0x8, addend: 0x0, symName: __ZNSt3__118__search_substringB8ue170006IcNS_11char_traitsIcEEEEPKT_S5_S5_S5_S5_, symObjAddr: 0xE4B4, symBinAddr: 0x10000FCB0, symSize: 0x154 }
  - { offsetInCU: 0x13929, offset: 0x13929, size: 0x8, addend: 0x0, symName: __ZNSt3__118__constexpr_memchrB8ue170006IKccEEPT_S3_T0_m, symObjAddr: 0xE6AC, symBinAddr: 0x10000FEA8, symSize: 0x40 }
  - { offsetInCU: 0x139A0, offset: 0x139A0, size: 0x8, addend: 0x0, symName: __ZNSt3__142__uninitialized_allocator_move_if_noexceptB8ue170006INS_9allocatorINS_12basic_stringIcNS_11char_traitsIcEENS1_IcEEEEEENS_16reverse_iteratorIPS6_EESA_SA_EET2_RT_T0_T1_SB_, symObjAddr: 0xECEC, symBinAddr: 0x1000104E8, symSize: 0x11C }
  - { offsetInCU: 0x13A40, offset: 0x13A40, size: 0x8, addend: 0x0, symName: __ZNSt3__14swapB8ue170006IPNS_12basic_stringIcNS_11char_traitsIcEENS_9allocatorIcEEEEEENS_9enable_ifIXaasr21is_move_constructibleIT_EE5valuesr18is_move_assignableIS9_EE5valueEvE4typeERS9_SC_, symObjAddr: 0xEE08, symBinAddr: 0x100010604, symSize: 0x3C }
  - { offsetInCU: 0x13A91, offset: 0x13A91, size: 0x8, addend: 0x0, symName: __ZNSt3__122__make_exception_guardB8ue170006INS_29_AllocatorDestroyRangeReverseINS_9allocatorINS_12basic_stringIcNS_11char_traitsIcEENS2_IcEEEEEENS_16reverse_iteratorIPS7_EEEEEENS_28__exception_guard_exceptionsIT_EESE_, symObjAddr: 0xEE44, symBinAddr: 0x100010640, symSize: 0x4C }
  - { offsetInCU: 0x13AC7, offset: 0x13AC7, size: 0x8, addend: 0x0, symName: __ZNSt3__119__allocator_destroyB8ue170006INS_9allocatorINS_12basic_stringIcNS_11char_traitsIcEENS1_IcEEEEEENS_16reverse_iteratorINS8_IPS6_EEEESB_EEvRT_T0_T1_, symObjAddr: 0xF19C, symBinAddr: 0x100010998, symSize: 0x70 }
  - { offsetInCU: 0x13B2C, offset: 0x13B2C, size: 0x8, addend: 0x0, symName: __ZNSt3__1neB8ue170006INS_16reverse_iteratorIPNS_12basic_stringIcNS_11char_traitsIcEENS_9allocatorIcEEEEEES9_EEbRKNS1_IT_EERKNS1_IT0_EE, symObjAddr: 0xF248, symBinAddr: 0x100010A44, symSize: 0x60 }
  - { offsetInCU: 0x13B78, offset: 0x13B78, size: 0x8, addend: 0x0, symName: __ZNSt3__112__to_addressB8ue170006INS_16reverse_iteratorINS1_IPNS_12basic_stringIcNS_11char_traitsIcEENS_9allocatorIcEEEEEEEEvEEu7__decayIDTclsr19__to_address_helperIT_EE6__callclsr3stdE7declvalIRKSB_EEEEESD_, symObjAddr: 0xF2A8, symBinAddr: 0x100010AA4, symSize: 0x24 }
  - { offsetInCU: 0x13C0E, offset: 0x13C0E, size: 0x8, addend: 0x0, symName: __ZNSt3__116forward_as_tupleB8ue170006IJRKNS_12basic_stringIcNS_11char_traitsIcEENS_9allocatorIcEEEEEEENS_5tupleIJDpOT_EEESC_, symObjAddr: 0xFAD0, symBinAddr: 0x1000112CC, symSize: 0x2C }
  - { offsetInCU: 0x13C47, offset: 0x13C47, size: 0x8, addend: 0x0, symName: __ZNSt3__116forward_as_tupleB8ue170006IJEEENS_5tupleIJDpOT_EEES4_, symObjAddr: 0xFAFC, symBinAddr: 0x1000112F8, symSize: 0x4 }
  - { offsetInCU: 0x13C6B, offset: 0x13C6B, size: 0x8, addend: 0x0, symName: __ZNSt3__116__constrain_hashB8ue170006Emm, symObjAddr: 0xFBC0, symBinAddr: 0x1000113BC, symSize: 0x98 }
  - { offsetInCU: 0x13CA5, offset: 0x13CA5, size: 0x8, addend: 0x0, symName: __ZNSt3__116__is_hash_power2B8ue170006Em, symObjAddr: 0xFF04, symBinAddr: 0x100011700, symSize: 0x50 }
  - { offsetInCU: 0x13CD1, offset: 0x13CD1, size: 0x8, addend: 0x0, symName: __ZNSt3__116__do_string_hashB8ue170006IPKcEEmT_S3_, symObjAddr: 0x10180, symBinAddr: 0x10001197C, symSize: 0x3C }
  - { offsetInCU: 0x13D17, offset: 0x13D17, size: 0x8, addend: 0x0, symName: __ZNSt3__110__loadwordB8ue170006ImEET_PKv, symObjAddr: 0x10B74, symBinAddr: 0x100012370, symSize: 0x20 }
  - { offsetInCU: 0x13D5A, offset: 0x13D5A, size: 0x8, addend: 0x0, symName: __ZNSt3__14swapB8ue170006ImEENS_9enable_ifIXaasr21is_move_constructibleIT_EE5valuesr18is_move_assignableIS2_EE5valueEvE4typeERS2_S5_, symObjAddr: 0x10D30, symBinAddr: 0x10001252C, symSize: 0x3C }
  - { offsetInCU: 0x13DAB, offset: 0x13DAB, size: 0x8, addend: 0x0, symName: __ZNSt3__110__loadwordB8ue170006IjEET_PKv, symObjAddr: 0x10DC0, symBinAddr: 0x1000125BC, symSize: 0x20 }
  - { offsetInCU: 0x13DEE, offset: 0x13DEE, size: 0x8, addend: 0x0, symName: __ZNSt3__1eqB8ue170006INS_9allocatorIcEEEEbRKNS_12basic_stringIcNS_11char_traitsIcEET_EES9_, symObjAddr: 0x1108C, symBinAddr: 0x100012888, symSize: 0x148 }
  - { offsetInCU: 0x13EBE, offset: 0x13EBE, size: 0x8, addend: 0x0, symName: __ZNSt3__13getB8ue170006ILm0EJRKNS_12basic_stringIcNS_11char_traitsIcEENS_9allocatorIcEEEEEEERNS_13tuple_elementIXT_ENS_5tupleIJDpT0_EEEE4typeERSD_, symObjAddr: 0x1166C, symBinAddr: 0x100012E68, symSize: 0x24 }
  - { offsetInCU: 0x13F01, offset: 0x13F01, size: 0x8, addend: 0x0, symName: __ZNSt3__116__next_hash_pow2B8ue170006Em, symObjAddr: 0x11B70, symBinAddr: 0x10001336C, symSize: 0x6C }
  - { offsetInCU: 0x13F2D, offset: 0x13F2D, size: 0x8, addend: 0x0, symName: __ZNSt3__112__libcpp_clzB8ue170006Em, symObjAddr: 0x11F18, symBinAddr: 0x100013714, symSize: 0x1C }
  - { offsetInCU: 0x13FB0, offset: 0x13FB0, size: 0x8, addend: 0x0, symName: __ZNSt3__1neB8ue170006ERKNS_21__hash_const_iteratorIPNS_11__hash_nodeINS_17__hash_value_typeINS_12basic_stringIcNS_11char_traitsIcEENS_9allocatorIcEEEE7commandEEPvEEEESG_, symObjAddr: 0x123B0, symBinAddr: 0x100013BAC, symSize: 0x34 }
  - { offsetInCU: 0x13FED, offset: 0x13FED, size: 0x8, addend: 0x0, symName: __ZNSt3__1eqB8ue170006ERKNS_21__hash_const_iteratorIPNS_11__hash_nodeINS_17__hash_value_typeINS_12basic_stringIcNS_11char_traitsIcEENS_9allocatorIcEEEE7commandEEPvEEEESG_, symObjAddr: 0x125C8, symBinAddr: 0x100013DC4, symSize: 0x30 }
  - { offsetInCU: 0x1402A, offset: 0x1402A, size: 0x8, addend: 0x0, symName: __ZNSt3__17getlineB8ue170006IcNS_11char_traitsIcEENS_9allocatorIcEEEERNS_13basic_istreamIT_T0_EES9_RNS_12basic_stringIS6_S7_T1_EES6_, symObjAddr: 0x13074, symBinAddr: 0x100014870, symSize: 0x238 }
  - { offsetInCU: 0x14106, offset: 0x14106, size: 0x8, addend: 0x0, symName: __ZNSt3__1neB8ue170006ERKNS_25__hash_map_const_iteratorINS_21__hash_const_iteratorIPNS_11__hash_nodeINS_17__hash_value_typeINS_12basic_stringIcNS_11char_traitsIcEENS_9allocatorIcEEEE7commandEEPvEEEEEESI_, symObjAddr: 0x13E98, symBinAddr: 0x100015694, symSize: 0x30 }
  - { offsetInCU: 0x14176, offset: 0x14176, size: 0x8, addend: 0x0, symName: __ZNSt3__14swapB8ue170006IPtEENS_9enable_ifIXaasr21is_move_constructibleIT_EE5valuesr18is_move_assignableIS3_EE5valueEvE4typeERS3_S6_, symObjAddr: 0x14818, symBinAddr: 0x100016014, symSize: 0x3C }
  - { offsetInCU: 0x141C7, offset: 0x141C7, size: 0x8, addend: 0x0, symName: __ZNSt3__14swapB8ue170006IPNS_19__shared_weak_countEEENS_9enable_ifIXaasr21is_move_constructibleIT_EE5valuesr18is_move_assignableIS4_EE5valueEvE4typeERS4_S7_, symObjAddr: 0x14854, symBinAddr: 0x100016050, symSize: 0x3C }
  - { offsetInCU: 0x14218, offset: 0x14218, size: 0x8, addend: 0x0, symName: __ZNSt3__115allocate_sharedB8ue170006ItNS_9allocatorItEEJRiEvEENS_10shared_ptrIT_EERKT0_DpOT1_, symObjAddr: 0x14890, symBinAddr: 0x10001608C, symSize: 0x98 }
  - { offsetInCU: 0x14291, offset: 0x14291, size: 0x8, addend: 0x0, symName: __ZNSt3__134__libcpp_atomic_refcount_incrementB8ue170006IlEET_RS1_, symObjAddr: 0x14AB4, symBinAddr: 0x1000162B0, symSize: 0x30 }
  - { offsetInCU: 0x149C3, offset: 0x149C3, size: 0x8, addend: 0x0, symName: __ZSt28__throw_bad_array_new_lengthB8ue170006v, symObjAddr: 0x5710, symBinAddr: 0x100006F0C, symSize: 0x34 }
  - { offsetInCU: 0x14D92, offset: 0x14D92, size: 0x8, addend: 0x0, symName: __Z8rpn_calc7commandt, symObjAddr: 0x9C, symBinAddr: 0x100001898, symSize: 0x8E8 }
  - { offsetInCU: 0x14DBC, offset: 0x14DBC, size: 0x8, addend: 0x0, symName: __ZZ8rpn_calc7commandtE10calc_stack, symObjAddr: 0xA3B60, symBinAddr: 0x10001C018, symSize: 0x0 }
  - { offsetInCU: 0x151D3, offset: 0x151D3, size: 0x8, addend: 0x0, symName: __ZL11table_width, symObjAddr: 0x156D9, symBinAddr: 0x1000173C5, symSize: 0x0 }
  - { offsetInCU: 0x157A4, offset: 0x157A4, size: 0x8, addend: 0x0, symName: __ZNSt3__16vectorINS_12basic_stringIcNS_11char_traitsIcEENS_9allocatorIcEEEENS4_IS6_EEE26__swap_out_circular_bufferERNS_14__split_bufferIS6_RS7_EE, symObjAddr: 0xE978, symBinAddr: 0x100010174, symSize: 0x110 }
  - { offsetInCU: 0x18157, offset: 0x18157, size: 0x8, addend: 0x0, symName: __ZNSt3__112basic_stringIcNS_11char_traitsIcEENS_9allocatorIcEEEC1B8ue170006ILi0EEEPKc, symObjAddr: 0x0, symBinAddr: 0x1000017FC, symSize: 0x34 }
  - { offsetInCU: 0x18196, offset: 0x18196, size: 0x8, addend: 0x0, symName: __ZNSt3__16vectorINS_12basic_stringIcNS_11char_traitsIcEENS_9allocatorIcEEEENS4_IS6_EEEC1B8ue170006ESt16initializer_listIS6_E, symObjAddr: 0x34, symBinAddr: 0x100001830, symSize: 0x3C }
  - { offsetInCU: 0x181D1, offset: 0x181D1, size: 0x8, addend: 0x0, symName: __ZNSt3__16vectorINS_12basic_stringIcNS_11char_traitsIcEENS_9allocatorIcEEEENS4_IS6_EEED1B8ue170006Ev, symObjAddr: 0x70, symBinAddr: 0x10000186C, symSize: 0x2C }
  - { offsetInCU: 0x181FB, offset: 0x181FB, size: 0x8, addend: 0x0, symName: __ZNSt3__15stackItNS_5dequeItNS_9allocatorItEEEEEC1B8ue170006Ev, symObjAddr: 0x9A8, symBinAddr: 0x1000021A4, symSize: 0x2C }
  - { offsetInCU: 0x18225, offset: 0x18225, size: 0x8, addend: 0x0, symName: __ZNSt3__15stackItNS_5dequeItNS_9allocatorItEEEEED1Ev, symObjAddr: 0x9D4, symBinAddr: 0x1000021D0, symSize: 0x2C }
  - { offsetInCU: 0x18251, offset: 0x18251, size: 0x8, addend: 0x0, symName: __ZNSt3__15stackItNS_5dequeItNS_9allocatorItEEEEEC1B8ue170006ERKS5_, symObjAddr: 0xA00, symBinAddr: 0x1000021FC, symSize: 0x34 }
  - { offsetInCU: 0x18289, offset: 0x18289, size: 0x8, addend: 0x0, symName: __ZNSt3__15stackItNS_5dequeItNS_9allocatorItEEEEE4pushB8ue170006ERKt, symObjAddr: 0xA34, symBinAddr: 0x100002230, symSize: 0x2C }
  - { offsetInCU: 0x182BE, offset: 0x182BE, size: 0x8, addend: 0x0, symName: __ZNSt3__15stackItNS_5dequeItNS_9allocatorItEEEEEaSB8ue170006ERKS5_, symObjAddr: 0xA60, symBinAddr: 0x10000225C, symSize: 0x34 }
  - { offsetInCU: 0x182F2, offset: 0x182F2, size: 0x8, addend: 0x0, symName: __ZNSt3__15stackItNS_5dequeItNS_9allocatorItEEEEE3topB8ue170006Ev, symObjAddr: 0xAD4, symBinAddr: 0x1000022D0, symSize: 0x24 }
  - { offsetInCU: 0x18318, offset: 0x18318, size: 0x8, addend: 0x0, symName: __ZNKSt3__15stackItNS_5dequeItNS_9allocatorItEEEEE5emptyB8ue170006Ev, symObjAddr: 0xAF8, symBinAddr: 0x1000022F4, symSize: 0x28 }
  - { offsetInCU: 0x1833E, offset: 0x1833E, size: 0x8, addend: 0x0, symName: __ZNSt3__15stackItNS_5dequeItNS_9allocatorItEEEEE3popB8ue170006Ev, symObjAddr: 0xB20, symBinAddr: 0x10000231C, symSize: 0x24 }
  - { offsetInCU: 0x18364, offset: 0x18364, size: 0x8, addend: 0x0, symName: __ZNSt3__110shared_ptrItEC1B8ue170006EDn, symObjAddr: 0xB44, symBinAddr: 0x100002340, symSize: 0x34 }
  - { offsetInCU: 0x18399, offset: 0x18399, size: 0x8, addend: 0x0, symName: __ZNKSt3__15stackItNS_5dequeItNS_9allocatorItEEEEE4sizeB8ue170006Ev, symObjAddr: 0xB78, symBinAddr: 0x100002374, symSize: 0x24 }
  - { offsetInCU: 0x183BF, offset: 0x183BF, size: 0x8, addend: 0x0, symName: __ZNSt3__15stackItNS_5dequeItNS_9allocatorItEEEEE4pushB8ue170006EOt, symObjAddr: 0xB9C, symBinAddr: 0x100002398, symSize: 0x2C }
  - { offsetInCU: 0x183F4, offset: 0x183F4, size: 0x8, addend: 0x0, symName: __Z6headerv, symObjAddr: 0xC08, symBinAddr: 0x100002404, symSize: 0x4CC }
  - { offsetInCU: 0x1840E, offset: 0x1840E, size: 0x8, addend: 0x0, symName: __ZNSt3__113basic_ostreamIcNS_11char_traitsIcEEElsB8ue170006EPFRNS_8ios_baseES5_E, symObjAddr: 0x119C, symBinAddr: 0x100002998, symSize: 0x40 }
  - { offsetInCU: 0x18442, offset: 0x18442, size: 0x8, addend: 0x0, symName: __ZNSt3__113basic_ostreamIcNS_11char_traitsIcEEElsB8ue170006EPFRS3_S4_E, symObjAddr: 0x1264, symBinAddr: 0x100002A60, symSize: 0x2C }
  - { offsetInCU: 0x18476, offset: 0x18476, size: 0x8, addend: 0x0, symName: __Z9print_rowb7commandsNSt3__110shared_ptrItEE, symObjAddr: 0x12E8, symBinAddr: 0x100002AE4, symSize: 0x6B4 }
  - { offsetInCU: 0x184D8, offset: 0x184D8, size: 0x8, addend: 0x0, symName: __ZNSt3__16vectorINS_12basic_stringIcNS_11char_traitsIcEENS_9allocatorIcEEEENS4_IS6_EEEixB8ue170006Em, symObjAddr: 0x19E8, symBinAddr: 0x1000031E4, symSize: 0x2C }
  - { offsetInCU: 0x1850F, offset: 0x1850F, size: 0x8, addend: 0x0, symName: __ZNSt3__16bitsetILm16EEC1B8ue170006Ey, symObjAddr: 0x1B6C, symBinAddr: 0x100003368, symSize: 0x34 }
  - { offsetInCU: 0x18548, offset: 0x18548, size: 0x8, addend: 0x0, symName: __ZNKSt3__110shared_ptrItEcvbB8ue170006Ev, symObjAddr: 0x1BA0, symBinAddr: 0x10000339C, symSize: 0x30 }
  - { offsetInCU: 0x1856E, offset: 0x1856E, size: 0x8, addend: 0x0, symName: __ZNKSt3__110shared_ptrItEdeB8ue170006Ev, symObjAddr: 0x1BD0, symBinAddr: 0x1000033CC, symSize: 0x18 }
  - { offsetInCU: 0x18593, offset: 0x18593, size: 0x8, addend: 0x0, symName: __Z5splitRKNSt3__112basic_stringIcNS_11char_traitsIcEENS_9allocatorIcEEEES7_, symObjAddr: 0x1BE8, symBinAddr: 0x1000033E4, symSize: 0x14C }
  - { offsetInCU: 0x18608, offset: 0x18608, size: 0x8, addend: 0x0, symName: __ZNSt3__16vectorINS_12basic_stringIcNS_11char_traitsIcEENS_9allocatorIcEEEENS4_IS6_EEEC1B8ue170006Ev, symObjAddr: 0x1D34, symBinAddr: 0x100003530, symSize: 0x2C }
  - { offsetInCU: 0x18632, offset: 0x18632, size: 0x8, addend: 0x0, symName: __ZNSt3__112basic_stringIcNS_11char_traitsIcEENS_9allocatorIcEEEC1B8ue170006Ev, symObjAddr: 0x1D60, symBinAddr: 0x10000355C, symSize: 0x2C }
  - { offsetInCU: 0x1865C, offset: 0x1865C, size: 0x8, addend: 0x0, symName: __ZNKSt3__112basic_stringIcNS_11char_traitsIcEENS_9allocatorIcEEE4findB8ue170006EPKcm, symObjAddr: 0x1D8C, symBinAddr: 0x100003588, symSize: 0x74 }
  - { offsetInCU: 0x186A2, offset: 0x186A2, size: 0x8, addend: 0x0, symName: __ZNKSt3__112basic_stringIcNS_11char_traitsIcEENS_9allocatorIcEEE6substrB8ue170006Emm, symObjAddr: 0x1E00, symBinAddr: 0x1000035FC, symSize: 0x68 }
  - { offsetInCU: 0x186E6, offset: 0x186E6, size: 0x8, addend: 0x0, symName: __ZNSt3__112basic_stringIcNS_11char_traitsIcEENS_9allocatorIcEEEaSB8ue170006EOS5_, symObjAddr: 0x1E68, symBinAddr: 0x100003664, symSize: 0x34 }
  - { offsetInCU: 0x1871B, offset: 0x1871B, size: 0x8, addend: 0x0, symName: __ZNSt3__16vectorINS_12basic_stringIcNS_11char_traitsIcEENS_9allocatorIcEEEENS4_IS6_EEE9push_backB8ue170006ERKS6_, symObjAddr: 0x1E9C, symBinAddr: 0x100003698, symSize: 0x6C }
  - { offsetInCU: 0x18752, offset: 0x18752, size: 0x8, addend: 0x0, symName: __ZNKSt3__112basic_stringIcNS_11char_traitsIcEENS_9allocatorIcEEE6lengthB8ue170006Ev, symObjAddr: 0x1F08, symBinAddr: 0x100003704, symSize: 0x24 }
  - { offsetInCU: 0x18778, offset: 0x18778, size: 0x8, addend: 0x0, symName: __Z16init_command_mapRNSt3__113unordered_mapINS_12basic_stringIcNS_11char_traitsIcEENS_9allocatorIcEEEE7commandNS_4hashIS6_EENS_8equal_toIS6_EENS4_INS_4pairIKS6_S7_EEEEEE, symObjAddr: 0x1F2C, symBinAddr: 0x100003728, symSize: 0xD0 }
  - { offsetInCU: 0x187C9, offset: 0x187C9, size: 0x8, addend: 0x0, symName: __ZNKSt3__16vectorINS_12basic_stringIcNS_11char_traitsIcEENS_9allocatorIcEEEENS4_IS6_EEE4sizeB8ue170006Ev, symObjAddr: 0x1FFC, symBinAddr: 0x1000037F8, symSize: 0x28 }
  - { offsetInCU: 0x188D9, offset: 0x188D9, size: 0x8, addend: 0x0, symName: __ZNSt3__113unordered_mapINS_12basic_stringIcNS_11char_traitsIcEENS_9allocatorIcEEEE7commandNS_4hashIS6_EENS_8equal_toIS6_EENS4_INS_4pairIKS6_S7_EEEEEixERSD_, symObjAddr: 0x2024, symBinAddr: 0x100003820, symSize: 0x80 }
  - { offsetInCU: 0x1890F, offset: 0x1890F, size: 0x8, addend: 0x0, symName: __Z14parse_csv_lineNSt3__112basic_stringIcNS_11char_traitsIcEENS_9allocatorIcEEEENS_13unordered_mapIS5_7commandNS_4hashIS5_EENS_8equal_toIS5_EENS3_INS_4pairIKS5_S7_EEEEEERS7_RtRi, symObjAddr: 0x20A4, symBinAddr: 0x1000038A0, symSize: 0x3B0 }
  - { offsetInCU: 0x189AA, offset: 0x189AA, size: 0x8, addend: 0x0, symName: __ZNKSt3__113unordered_mapINS_12basic_stringIcNS_11char_traitsIcEENS_9allocatorIcEEEE7commandNS_4hashIS6_EENS_8equal_toIS6_EENS4_INS_4pairIKS6_S7_EEEEE5countB8ue170006ERSD_, symObjAddr: 0x2454, symBinAddr: 0x100003C50, symSize: 0x2C }
  - { offsetInCU: 0x189DF, offset: 0x189DF, size: 0x8, addend: 0x0, symName: __ZNKSt3__112basic_stringIcNS_11char_traitsIcEENS_9allocatorIcEEE5c_strB8ue170006Ev, symObjAddr: 0x2480, symBinAddr: 0x100003C7C, symSize: 0x24 }
  - { offsetInCU: 0x18A04, offset: 0x18A04, size: 0x8, addend: 0x0, symName: __Z4testv, symObjAddr: 0x24B0, symBinAddr: 0x100003CAC, symSize: 0x66C }
  - { offsetInCU: 0x18C7A, offset: 0x18C7A, size: 0x8, addend: 0x0, symName: __ZNSt3__114basic_ifstreamIcNS_11char_traitsIcEEEC1EPKcj, symObjAddr: 0x2B1C, symBinAddr: 0x100004318, symSize: 0x16C }
  - { offsetInCU: 0x18CC4, offset: 0x18CC4, size: 0x8, addend: 0x0, symName: __ZNKSt3__114basic_ifstreamIcNS_11char_traitsIcEEE7is_openEv, symObjAddr: 0x2C88, symBinAddr: 0x100004484, symSize: 0x2C }
  - { offsetInCU: 0x18CEC, offset: 0x18CEC, size: 0x8, addend: 0x0, symName: __ZNSt3__113unordered_mapINS_12basic_stringIcNS_11char_traitsIcEENS_9allocatorIcEEEE7commandNS_4hashIS6_EENS_8equal_toIS6_EENS4_INS_4pairIKS6_S7_EEEEEC1B8ue170006Ev, symObjAddr: 0x2CB4, symBinAddr: 0x1000044B0, symSize: 0x2C }
  - { offsetInCU: 0x18D16, offset: 0x18D16, size: 0x8, addend: 0x0, symName: __ZNKSt3__19basic_iosIcNS_11char_traitsIcEEEcvbB8ue170006Ev, symObjAddr: 0x2D3C, symBinAddr: 0x100004538, symSize: 0x2C }
  - { offsetInCU: 0x18D3C, offset: 0x18D3C, size: 0x8, addend: 0x0, symName: __ZNSt3__113unordered_mapINS_12basic_stringIcNS_11char_traitsIcEENS_9allocatorIcEEEE7commandNS_4hashIS6_EENS_8equal_toIS6_EENS4_INS_4pairIKS6_S7_EEEEEC1ERKSG_, symObjAddr: 0x2D68, symBinAddr: 0x100004564, symSize: 0x34 }
  - { offsetInCU: 0x18D77, offset: 0x18D77, size: 0x8, addend: 0x0, symName: __ZNSt3__113unordered_mapINS_12basic_stringIcNS_11char_traitsIcEENS_9allocatorIcEEEE7commandNS_4hashIS6_EENS_8equal_toIS6_EENS4_INS_4pairIKS6_S7_EEEEED1B8ue170006Ev, symObjAddr: 0x2D9C, symBinAddr: 0x100004598, symSize: 0x2C }
  - { offsetInCU: 0x18DA1, offset: 0x18DA1, size: 0x8, addend: 0x0, symName: __ZNSt3__110shared_ptrItEC1B8ue170006Ev, symObjAddr: 0x2DC8, symBinAddr: 0x1000045C4, symSize: 0x2C }
  - { offsetInCU: 0x18DCB, offset: 0x18DCB, size: 0x8, addend: 0x0, symName: __ZNSt3__110shared_ptrItEaSB8ue170006EOS1_, symObjAddr: 0x2DF4, symBinAddr: 0x1000045F0, symSize: 0x50 }
  - { offsetInCU: 0x18E00, offset: 0x18E00, size: 0x8, addend: 0x0, symName: __ZNSt3__110shared_ptrItED1B8ue170006Ev, symObjAddr: 0x2E44, symBinAddr: 0x100004640, symSize: 0x2C }
  - { offsetInCU: 0x18E2A, offset: 0x18E2A, size: 0x8, addend: 0x0, symName: __ZNSt3__110shared_ptrItEC1B8ue170006ERKS1_, symObjAddr: 0x2EE0, symBinAddr: 0x1000046DC, symSize: 0x34 }
  - { offsetInCU: 0x18E63, offset: 0x18E63, size: 0x8, addend: 0x0, symName: __ZNSt3__114basic_ifstreamIcNS_11char_traitsIcEEE5closeEv, symObjAddr: 0x2F14, symBinAddr: 0x100004710, symSize: 0x58 }
  - { offsetInCU: 0x18E91, offset: 0x18E91, size: 0x8, addend: 0x0, symName: __ZNSt3__114basic_ifstreamIcNS_11char_traitsIcEEED1Ev, symObjAddr: 0x2F6C, symBinAddr: 0x100004768, symSize: 0x40 }
  - { offsetInCU: 0x18EBE, offset: 0x18EBE, size: 0x8, addend: 0x0, symName: _main, symObjAddr: 0x2FAC, symBinAddr: 0x1000047A8, symSize: 0x40 }
  - { offsetInCU: 0x18ED9, offset: 0x18ED9, size: 0x8, addend: 0x0, symName: __ZNSt3__15stackItNS_5dequeItNS_9allocatorItEEEEED2Ev, symObjAddr: 0x2FEC, symBinAddr: 0x1000047E8, symSize: 0x2C }
  - { offsetInCU: 0x18F05, offset: 0x18F05, size: 0x8, addend: 0x0, symName: __ZNSt3__15dequeItNS_9allocatorItEEED1B8ue170006Ev, symObjAddr: 0x3018, symBinAddr: 0x100004814, symSize: 0x2C }
  - { offsetInCU: 0x18F2F, offset: 0x18F2F, size: 0x8, addend: 0x0, symName: __ZNSt3__15dequeItNS_9allocatorItEEED2B8ue170006Ev, symObjAddr: 0x3044, symBinAddr: 0x100004840, symSize: 0xA4 }
  - { offsetInCU: 0x18F86, offset: 0x18F86, size: 0x8, addend: 0x0, symName: __ZNSt3__15dequeItNS_9allocatorItEEE5clearEv, symObjAddr: 0x30E8, symBinAddr: 0x1000048E4, symSize: 0x194 }
  - { offsetInCU: 0x18FE1, offset: 0x18FE1, size: 0x8, addend: 0x0, symName: __ZNKSt3__15dequeItNS_9allocatorItEEE17__annotate_deleteB8ue170006Ev, symObjAddr: 0x327C, symBinAddr: 0x100004A78, symSize: 0xE8 }
  - { offsetInCU: 0x19025, offset: 0x19025, size: 0x8, addend: 0x0, symName: __ZNSt3__114__split_bufferIPtNS_9allocatorIS1_EEE5beginB8ue170006Ev, symObjAddr: 0x3364, symBinAddr: 0x100004B60, symSize: 0x18 }
  - { offsetInCU: 0x1904B, offset: 0x1904B, size: 0x8, addend: 0x0, symName: __ZNSt3__114__split_bufferIPtNS_9allocatorIS1_EEE3endB8ue170006Ev, symObjAddr: 0x337C, symBinAddr: 0x100004B78, symSize: 0x18 }
  - { offsetInCU: 0x19071, offset: 0x19071, size: 0x8, addend: 0x0, symName: __ZNSt3__116allocator_traitsINS_9allocatorItEEE10deallocateB8ue170006ERS2_Ptm, symObjAddr: 0x3394, symBinAddr: 0x100004B90, symSize: 0x34 }
  - { offsetInCU: 0x190B3, offset: 0x190B3, size: 0x8, addend: 0x0, symName: __ZNSt3__15dequeItNS_9allocatorItEEE7__allocB8ue170006Ev, symObjAddr: 0x33C8, symBinAddr: 0x100004BC4, symSize: 0x28 }
  - { offsetInCU: 0x190D9, offset: 0x190D9, size: 0x8, addend: 0x0, symName: __ZNSt3__114__split_bufferIPtNS_9allocatorIS1_EEED1Ev, symObjAddr: 0x33F0, symBinAddr: 0x100004BEC, symSize: 0x2C }
  - { offsetInCU: 0x19105, offset: 0x19105, size: 0x8, addend: 0x0, symName: __ZNSt3__15dequeItNS_9allocatorItEEE5beginB8ue170006Ev, symObjAddr: 0x341C, symBinAddr: 0x100004C18, symSize: 0xB8 }
  - { offsetInCU: 0x1913A, offset: 0x1913A, size: 0x8, addend: 0x0, symName: __ZNSt3__15dequeItNS_9allocatorItEEE3endB8ue170006Ev, symObjAddr: 0x34D4, symBinAddr: 0x100004CD0, symSize: 0xBC }
  - { offsetInCU: 0x1917E, offset: 0x1917E, size: 0x8, addend: 0x0, symName: __ZNSt3__116allocator_traitsINS_9allocatorItEEE7destroyB8ue170006ItvEEvRS2_PT_, symObjAddr: 0x35C4, symBinAddr: 0x100004DC0, symSize: 0x2C }
  - { offsetInCU: 0x191BB, offset: 0x191BB, size: 0x8, addend: 0x0, symName: __ZNKSt3__116__deque_iteratorItPtRtPS1_lLl2048EEdeB8ue170006Ev, symObjAddr: 0x35F0, symBinAddr: 0x100004DEC, symSize: 0x18 }
  - { offsetInCU: 0x191E1, offset: 0x191E1, size: 0x8, addend: 0x0, symName: __ZNSt3__116__deque_iteratorItPtRtPS1_lLl2048EEppB8ue170006Ev, symObjAddr: 0x3608, symBinAddr: 0x100004E04, symSize: 0x70 }
  - { offsetInCU: 0x19207, offset: 0x19207, size: 0x8, addend: 0x0, symName: __ZNSt3__15dequeItNS_9allocatorItEEE6__sizeB8ue170006Ev, symObjAddr: 0x3678, symBinAddr: 0x100004E74, symSize: 0x28 }
  - { offsetInCU: 0x1922D, offset: 0x1922D, size: 0x8, addend: 0x0, symName: __ZNKSt3__114__split_bufferIPtNS_9allocatorIS1_EEE4sizeB8ue170006Ev, symObjAddr: 0x36A0, symBinAddr: 0x100004E9C, symSize: 0x28 }
  - { offsetInCU: 0x19253, offset: 0x19253, size: 0x8, addend: 0x0, symName: __ZNSt3__114__split_bufferIPtNS_9allocatorIS1_EEE5frontB8ue170006Ev, symObjAddr: 0x36C8, symBinAddr: 0x100004EC4, symSize: 0x18 }
  - { offsetInCU: 0x19279, offset: 0x19279, size: 0x8, addend: 0x0, symName: __ZNSt3__114__split_bufferIPtNS_9allocatorIS1_EEE9pop_frontB8ue170006Ev, symObjAddr: 0x36E0, symBinAddr: 0x100004EDC, symSize: 0x2C }
  - { offsetInCU: 0x1929F, offset: 0x1929F, size: 0x8, addend: 0x0, symName: __ZNKSt3__15dequeItNS_9allocatorItEEE14__annotate_newB8ue170006Em, symObjAddr: 0x370C, symBinAddr: 0x100004F08, symSize: 0xB8 }
  - { offsetInCU: 0x192D4, offset: 0x192D4, size: 0x8, addend: 0x0, symName: __ZNKSt3__114__split_bufferIPtNS_9allocatorIS1_EEE5emptyB8ue170006Ev, symObjAddr: 0x37C4, symBinAddr: 0x100004FC0, symSize: 0x28 }
  - { offsetInCU: 0x192FA, offset: 0x192FA, size: 0x8, addend: 0x0, symName: __ZNSt3__116__deque_iteratorItPtRtPS1_lLl2048EEC1B8ue170006ES3_S1_, symObjAddr: 0x37EC, symBinAddr: 0x100004FE8, symSize: 0x3C }
  - { offsetInCU: 0x19342, offset: 0x19342, size: 0x8, addend: 0x0, symName: __ZNSt3__116__deque_iteratorItPtRtPS1_lLl2048EEC2B8ue170006ES3_S1_, symObjAddr: 0x3828, symBinAddr: 0x100005024, symSize: 0x2C }
  - { offsetInCU: 0x1938A, offset: 0x1938A, size: 0x8, addend: 0x0, symName: __ZNKSt3__15dequeItNS_9allocatorItEEE4sizeB8ue170006Ev, symObjAddr: 0x3854, symBinAddr: 0x100005050, symSize: 0x28 }
  - { offsetInCU: 0x193B0, offset: 0x193B0, size: 0x8, addend: 0x0, symName: __ZNKSt3__15dequeItNS_9allocatorItEEE6__sizeB8ue170006Ev, symObjAddr: 0x387C, symBinAddr: 0x100005078, symSize: 0x28 }
  - { offsetInCU: 0x193D6, offset: 0x193D6, size: 0x8, addend: 0x0, symName: __ZNKSt3__117__compressed_pairImNS_9allocatorItEEE5firstB8ue170006Ev, symObjAddr: 0x38A4, symBinAddr: 0x1000050A0, symSize: 0x24 }
  - { offsetInCU: 0x193FC, offset: 0x193FC, size: 0x8, addend: 0x0, symName: __ZNKSt3__122__compressed_pair_elemImLi0ELb0EE5__getB8ue170006Ev, symObjAddr: 0x38C8, symBinAddr: 0x1000050C4, symSize: 0x14 }
  - { offsetInCU: 0x19422, offset: 0x19422, size: 0x8, addend: 0x0, symName: __ZNSt3__19allocatorItE7destroyB8ue170006EPt, symObjAddr: 0x390C, symBinAddr: 0x100005108, symSize: 0x14 }
  - { offsetInCU: 0x19456, offset: 0x19456, size: 0x8, addend: 0x0, symName: __ZNSt3__117__compressed_pairImNS_9allocatorItEEE5firstB8ue170006Ev, symObjAddr: 0x3920, symBinAddr: 0x10000511C, symSize: 0x24 }
  - { offsetInCU: 0x1947C, offset: 0x1947C, size: 0x8, addend: 0x0, symName: __ZNSt3__122__compressed_pair_elemImLi0ELb0EE5__getB8ue170006Ev, symObjAddr: 0x3944, symBinAddr: 0x100005140, symSize: 0x14 }
  - { offsetInCU: 0x194A2, offset: 0x194A2, size: 0x8, addend: 0x0, symName: __ZNSt3__114__split_bufferIPtNS_9allocatorIS1_EEE19__destruct_at_beginB8ue170006EPS1_, symObjAddr: 0x3958, symBinAddr: 0x100005154, symSize: 0x2C }
  - { offsetInCU: 0x194D6, offset: 0x194D6, size: 0x8, addend: 0x0, symName: __ZNSt3__114__split_bufferIPtNS_9allocatorIS1_EEE19__destruct_at_beginEPS1_NS_17integral_constantIbLb1EEE, symObjAddr: 0x3984, symBinAddr: 0x100005180, symSize: 0x20 }
  - { offsetInCU: 0x19517, offset: 0x19517, size: 0x8, addend: 0x0, symName: __ZNKSt3__15dequeItNS_9allocatorItEEE18__annotate_from_toB8ue170006EmmNS3_22__asan_annotation_typeENS3_23__asan_annotation_placeE, symObjAddr: 0x39A4, symBinAddr: 0x1000051A0, symSize: 0x580 }
  - { offsetInCU: 0x196D5, offset: 0x196D5, size: 0x8, addend: 0x0, symName: __ZNKSt3__114__split_bufferIPtNS_9allocatorIS1_EEE5beginB8ue170006Ev, symObjAddr: 0x3F24, symBinAddr: 0x100005720, symSize: 0x18 }
  - { offsetInCU: 0x196FB, offset: 0x196FB, size: 0x8, addend: 0x0, symName: __ZNKSt3__15dequeItNS_9allocatorItEEE5emptyB8ue170006Ev, symObjAddr: 0x3F3C, symBinAddr: 0x100005738, symSize: 0x30 }
  - { offsetInCU: 0x19721, offset: 0x19721, size: 0x8, addend: 0x0, symName: __ZNKSt3__15dequeItNS_9allocatorItEEE44__annotate_double_ended_contiguous_containerB8ue170006EPKvS5_S5_S5_S5_S5_, symObjAddr: 0x3F80, symBinAddr: 0x10000577C, symSize: 0x28 }
  - { offsetInCU: 0x19789, offset: 0x19789, size: 0x8, addend: 0x0, symName: __ZNKSt3__15dequeItNS_9allocatorItEEE22__annotate_whole_blockB8ue170006EmNS3_22__asan_annotation_typeE, symObjAddr: 0x3FA8, symBinAddr: 0x1000057A4, symSize: 0xAC }
  - { offsetInCU: 0x197FA, offset: 0x197FA, size: 0x8, addend: 0x0, symName: __ZNKSt3__15dequeItNS_9allocatorItEEE23__annotate_poison_blockB8ue170006EPKvS5_, symObjAddr: 0x4054, symBinAddr: 0x100005850, symSize: 0x44 }
  - { offsetInCU: 0x1983E, offset: 0x1983E, size: 0x8, addend: 0x0, symName: __ZNSt3__19allocatorItE10deallocateB8ue170006EPtm, symObjAddr: 0x4098, symBinAddr: 0x100005894, symSize: 0x40 }
  - { offsetInCU: 0x19880, offset: 0x19880, size: 0x8, addend: 0x0, symName: __ZNSt3__117__compressed_pairImNS_9allocatorItEEE6secondB8ue170006Ev, symObjAddr: 0x4154, symBinAddr: 0x100005950, symSize: 0x24 }
  - { offsetInCU: 0x198A6, offset: 0x198A6, size: 0x8, addend: 0x0, symName: __ZNSt3__122__compressed_pair_elemINS_9allocatorItEELi1ELb1EE5__getB8ue170006Ev, symObjAddr: 0x4178, symBinAddr: 0x100005974, symSize: 0x14 }
  - { offsetInCU: 0x198CC, offset: 0x198CC, size: 0x8, addend: 0x0, symName: __ZNSt3__114__split_bufferIPtNS_9allocatorIS1_EEED2Ev, symObjAddr: 0x418C, symBinAddr: 0x100005988, symSize: 0x8C }
  - { offsetInCU: 0x198F8, offset: 0x198F8, size: 0x8, addend: 0x0, symName: __ZNSt3__114__split_bufferIPtNS_9allocatorIS1_EEE5clearB8ue170006Ev, symObjAddr: 0x4218, symBinAddr: 0x100005A14, symSize: 0x28 }
  - { offsetInCU: 0x1991E, offset: 0x1991E, size: 0x8, addend: 0x0, symName: __ZNSt3__116allocator_traitsINS_9allocatorIPtEEE10deallocateB8ue170006ERS3_PS2_m, symObjAddr: 0x4240, symBinAddr: 0x100005A3C, symSize: 0x34 }
  - { offsetInCU: 0x19960, offset: 0x19960, size: 0x8, addend: 0x0, symName: __ZNSt3__114__split_bufferIPtNS_9allocatorIS1_EEE7__allocB8ue170006Ev, symObjAddr: 0x4274, symBinAddr: 0x100005A70, symSize: 0x28 }
  - { offsetInCU: 0x19986, offset: 0x19986, size: 0x8, addend: 0x0, symName: __ZNKSt3__114__split_bufferIPtNS_9allocatorIS1_EEE8capacityB8ue170006Ev, symObjAddr: 0x429C, symBinAddr: 0x100005A98, symSize: 0x40 }
  - { offsetInCU: 0x199AC, offset: 0x199AC, size: 0x8, addend: 0x0, symName: __ZNSt3__114__split_bufferIPtNS_9allocatorIS1_EEE17__destruct_at_endB8ue170006EPS1_, symObjAddr: 0x42DC, symBinAddr: 0x100005AD8, symSize: 0x2C }
  - { offsetInCU: 0x199E0, offset: 0x199E0, size: 0x8, addend: 0x0, symName: __ZNSt3__114__split_bufferIPtNS_9allocatorIS1_EEE17__destruct_at_endB8ue170006EPS1_NS_17integral_constantIbLb0EEE, symObjAddr: 0x4308, symBinAddr: 0x100005B04, symSize: 0x80 }
  - { offsetInCU: 0x19A21, offset: 0x19A21, size: 0x8, addend: 0x0, symName: __ZNSt3__116allocator_traitsINS_9allocatorIPtEEE7destroyB8ue170006IS2_vEEvRS3_PT_, symObjAddr: 0x4388, symBinAddr: 0x100005B84, symSize: 0x2C }
  - { offsetInCU: 0x19A5E, offset: 0x19A5E, size: 0x8, addend: 0x0, symName: __ZNSt3__19allocatorIPtE7destroyB8ue170006EPS1_, symObjAddr: 0x43C8, symBinAddr: 0x100005BC4, symSize: 0x14 }
  - { offsetInCU: 0x19A92, offset: 0x19A92, size: 0x8, addend: 0x0, symName: __ZNSt3__19allocatorIPtE10deallocateB8ue170006EPS1_m, symObjAddr: 0x43DC, symBinAddr: 0x100005BD8, symSize: 0x40 }
  - { offsetInCU: 0x19AD4, offset: 0x19AD4, size: 0x8, addend: 0x0, symName: __ZNSt3__117__compressed_pairIPPtNS_9allocatorIS1_EEE6secondB8ue170006Ev, symObjAddr: 0x441C, symBinAddr: 0x100005C18, symSize: 0x24 }
  - { offsetInCU: 0x19AFA, offset: 0x19AFA, size: 0x8, addend: 0x0, symName: __ZNSt3__122__compressed_pair_elemINS_9allocatorIPtEELi1ELb1EE5__getB8ue170006Ev, symObjAddr: 0x4440, symBinAddr: 0x100005C3C, symSize: 0x14 }
  - { offsetInCU: 0x19B20, offset: 0x19B20, size: 0x8, addend: 0x0, symName: __ZNKSt3__114__split_bufferIPtNS_9allocatorIS1_EEE9__end_capB8ue170006Ev, symObjAddr: 0x4454, symBinAddr: 0x100005C50, symSize: 0x28 }
  - { offsetInCU: 0x19B46, offset: 0x19B46, size: 0x8, addend: 0x0, symName: __ZNKSt3__117__compressed_pairIPPtNS_9allocatorIS1_EEE5firstB8ue170006Ev, symObjAddr: 0x447C, symBinAddr: 0x100005C78, symSize: 0x24 }
  - { offsetInCU: 0x19B6C, offset: 0x19B6C, size: 0x8, addend: 0x0, symName: __ZNKSt3__122__compressed_pair_elemIPPtLi0ELb0EE5__getB8ue170006Ev, symObjAddr: 0x44A0, symBinAddr: 0x100005C9C, symSize: 0x14 }
  - { offsetInCU: 0x19B92, offset: 0x19B92, size: 0x8, addend: 0x0, symName: __ZNSt3__110shared_ptrItEC2B8ue170006EDn, symObjAddr: 0x44B4, symBinAddr: 0x100005CB0, symSize: 0x20 }
  - { offsetInCU: 0x19BC7, offset: 0x19BC7, size: 0x8, addend: 0x0, symName: __ZNSt3__18ios_base4setfB8ue170006Ejj, symObjAddr: 0x44D4, symBinAddr: 0x100005CD0, symSize: 0x5C }
  - { offsetInCU: 0x19C1C, offset: 0x19C1C, size: 0x8, addend: 0x0, symName: __ZNSt3__18ios_base6unsetfB8ue170006Ej, symObjAddr: 0x4530, symBinAddr: 0x100005D2C, symSize: 0x28 }
  - { offsetInCU: 0x19C53, offset: 0x19C53, size: 0x8, addend: 0x0, symName: __ZNSt3__18__iom_t6C1B8ue170006Ei, symObjAddr: 0x4558, symBinAddr: 0x100005D54, symSize: 0x34 }
  - { offsetInCU: 0x19C8B, offset: 0x19C8B, size: 0x8, addend: 0x0, symName: __ZNSt3__18__iom_t6C2B8ue170006Ei, symObjAddr: 0x458C, symBinAddr: 0x100005D88, symSize: 0x20 }
  - { offsetInCU: 0x19CC3, offset: 0x19CC3, size: 0x8, addend: 0x0, symName: __ZNSt3__16bitsetILm16EEC2B8ue170006Ey, symObjAddr: 0x45AC, symBinAddr: 0x100005DA8, symSize: 0x34 }
  - { offsetInCU: 0x19CFC, offset: 0x19CFC, size: 0x8, addend: 0x0, symName: __ZNSt3__18__bitsetILm1ELm16EEC2Ey, symObjAddr: 0x45E0, symBinAddr: 0x100005DDC, symSize: 0x20 }
  - { offsetInCU: 0x19D37, offset: 0x19D37, size: 0x8, addend: 0x0, symName: __ZNSt3__110shared_ptrItEC2B8ue170006Ev, symObjAddr: 0x4600, symBinAddr: 0x100005DFC, symSize: 0x1C }
  - { offsetInCU: 0x19D61, offset: 0x19D61, size: 0x8, addend: 0x0, symName: __ZNSt3__114basic_ifstreamIcNS_11char_traitsIcEEED2Ev, symObjAddr: 0x461C, symBinAddr: 0x100005E18, symSize: 0x64 }
  - { offsetInCU: 0x19D9B, offset: 0x19D9B, size: 0x8, addend: 0x0, symName: __ZTv0_n24_NSt3__114basic_ifstreamIcNS_11char_traitsIcEEED1Ev, symObjAddr: 0x4680, symBinAddr: 0x100005E7C, symSize: 0x28 }
  - { offsetInCU: 0x19DB2, offset: 0x19DB2, size: 0x8, addend: 0x0, symName: __ZNSt3__112basic_stringIcNS_11char_traitsIcEENS_9allocatorIcEEEC2B8ue170006Ev, symObjAddr: 0x46A8, symBinAddr: 0x100005EA4, symSize: 0x48 }
  - { offsetInCU: 0x19DE2, offset: 0x19DE2, size: 0x8, addend: 0x0, symName: __ZNSt3__117__compressed_pairINS_12basic_stringIcNS_11char_traitsIcEENS_9allocatorIcEEE5__repES5_EC1B8ue170006INS_18__default_init_tagESA_EEOT_OT0_, symObjAddr: 0x46F0, symBinAddr: 0x100005EEC, symSize: 0x3C }
  - { offsetInCU: 0x19E3A, offset: 0x19E3A, size: 0x8, addend: 0x0, symName: __ZNSt3__112basic_stringIcNS_11char_traitsIcEENS_9allocatorIcEEE14__default_initB8ue170006Ev, symObjAddr: 0x472C, symBinAddr: 0x100005F28, symSize: 0x40 }
  - { offsetInCU: 0x19E60, offset: 0x19E60, size: 0x8, addend: 0x0, symName: __ZNSt3__117__compressed_pairINS_12basic_stringIcNS_11char_traitsIcEENS_9allocatorIcEEE5__repES5_EC2B8ue170006INS_18__default_init_tagESA_EEOT_OT0_, symObjAddr: 0x476C, symBinAddr: 0x100005F68, symSize: 0x3C }
  - { offsetInCU: 0x19EB8, offset: 0x19EB8, size: 0x8, addend: 0x0, symName: __ZNSt3__122__compressed_pair_elemINS_12basic_stringIcNS_11char_traitsIcEENS_9allocatorIcEEE5__repELi0ELb0EEC2B8ue170006ENS_18__default_init_tagE, symObjAddr: 0x47A8, symBinAddr: 0x100005FA4, symSize: 0x14 }
  - { offsetInCU: 0x19EED, offset: 0x19EED, size: 0x8, addend: 0x0, symName: __ZNSt3__122__compressed_pair_elemINS_9allocatorIcEELi1ELb1EEC2B8ue170006ENS_18__default_init_tagE, symObjAddr: 0x47BC, symBinAddr: 0x100005FB8, symSize: 0x2C }
  - { offsetInCU: 0x19F22, offset: 0x19F22, size: 0x8, addend: 0x0, symName: __ZNSt3__19allocatorIcEC2B8ue170006Ev, symObjAddr: 0x47E8, symBinAddr: 0x100005FE4, symSize: 0x2C }
  - { offsetInCU: 0x19F4C, offset: 0x19F4C, size: 0x8, addend: 0x0, symName: __ZNSt3__116__non_trivial_ifILb1ENS_9allocatorIcEEEC2B8ue170006Ev, symObjAddr: 0x4814, symBinAddr: 0x100006010, symSize: 0x14 }
  - { offsetInCU: 0x19F76, offset: 0x19F76, size: 0x8, addend: 0x0, symName: __ZNSt3__117__compressed_pairINS_12basic_stringIcNS_11char_traitsIcEENS_9allocatorIcEEE5__repES5_E5firstB8ue170006Ev, symObjAddr: 0x4828, symBinAddr: 0x100006024, symSize: 0x24 }
  - { offsetInCU: 0x19F9C, offset: 0x19F9C, size: 0x8, addend: 0x0, symName: __ZNSt3__122__compressed_pair_elemINS_12basic_stringIcNS_11char_traitsIcEENS_9allocatorIcEEE5__repELi0ELb0EE5__getB8ue170006Ev, symObjAddr: 0x484C, symBinAddr: 0x100006048, symSize: 0x14 }
  - { offsetInCU: 0x19FC2, offset: 0x19FC2, size: 0x8, addend: 0x0, symName: __ZNSt3__112basic_stringIcNS_11char_traitsIcEENS_9allocatorIcEEE13__move_assignB8ue170006ERS5_NS_17integral_constantIbLb1EEE, symObjAddr: 0x4860, symBinAddr: 0x10000605C, symSize: 0xC8 }
  - { offsetInCU: 0x1A004, offset: 0x1A004, size: 0x8, addend: 0x0, symName: __ZNKSt3__112basic_stringIcNS_11char_traitsIcEENS_9allocatorIcEEE9__is_longB8ue170006Ev, symObjAddr: 0x4928, symBinAddr: 0x100006124, symSize: 0x38 }
  - { offsetInCU: 0x1A02A, offset: 0x1A02A, size: 0x8, addend: 0x0, symName: __ZNSt3__116allocator_traitsINS_9allocatorIcEEE10deallocateB8ue170006ERS2_Pcm, symObjAddr: 0x4960, symBinAddr: 0x10000615C, symSize: 0x34 }
  - { offsetInCU: 0x1A06C, offset: 0x1A06C, size: 0x8, addend: 0x0, symName: __ZNSt3__112basic_stringIcNS_11char_traitsIcEENS_9allocatorIcEEE7__allocB8ue170006Ev, symObjAddr: 0x4994, symBinAddr: 0x100006190, symSize: 0x24 }
  - { offsetInCU: 0x1A092, offset: 0x1A092, size: 0x8, addend: 0x0, symName: __ZNSt3__112basic_stringIcNS_11char_traitsIcEENS_9allocatorIcEEE18__get_long_pointerB8ue170006Ev, symObjAddr: 0x49B8, symBinAddr: 0x1000061B4, symSize: 0x28 }
  - { offsetInCU: 0x1A0B8, offset: 0x1A0B8, size: 0x8, addend: 0x0, symName: __ZNKSt3__112basic_stringIcNS_11char_traitsIcEENS_9allocatorIcEEE14__get_long_capB8ue170006Ev, symObjAddr: 0x49E0, symBinAddr: 0x1000061DC, symSize: 0x30 }
  - { offsetInCU: 0x1A0DE, offset: 0x1A0DE, size: 0x8, addend: 0x0, symName: __ZNSt3__112basic_stringIcNS_11char_traitsIcEENS_9allocatorIcEEE19__move_assign_allocB8ue170006ERS5_, symObjAddr: 0x4A10, symBinAddr: 0x10000620C, symSize: 0x2C }
  - { offsetInCU: 0x1A113, offset: 0x1A113, size: 0x8, addend: 0x0, symName: __ZNSt3__112basic_stringIcNS_11char_traitsIcEENS_9allocatorIcEEE16__set_short_sizeB8ue170006Em, symObjAddr: 0x4A3C, symBinAddr: 0x100006238, symSize: 0x78 }
  - { offsetInCU: 0x1A148, offset: 0x1A148, size: 0x8, addend: 0x0, symName: __ZNSt3__111char_traitsIcE6assignB8ue170006ERcRKc, symObjAddr: 0x4AB4, symBinAddr: 0x1000062B0, symSize: 0x24 }
  - { offsetInCU: 0x1A179, offset: 0x1A179, size: 0x8, addend: 0x0, symName: __ZNSt3__112basic_stringIcNS_11char_traitsIcEENS_9allocatorIcEEE19__get_short_pointerB8ue170006Ev, symObjAddr: 0x4AD8, symBinAddr: 0x1000062D4, symSize: 0x28 }
  - { offsetInCU: 0x1A19F, offset: 0x1A19F, size: 0x8, addend: 0x0, symName: __ZNKSt3__117__compressed_pairINS_12basic_stringIcNS_11char_traitsIcEENS_9allocatorIcEEE5__repES5_E5firstB8ue170006Ev, symObjAddr: 0x4B00, symBinAddr: 0x1000062FC, symSize: 0x24 }
  - { offsetInCU: 0x1A1C5, offset: 0x1A1C5, size: 0x8, addend: 0x0, symName: __ZNKSt3__122__compressed_pair_elemINS_12basic_stringIcNS_11char_traitsIcEENS_9allocatorIcEEE5__repELi0ELb0EE5__getB8ue170006Ev, symObjAddr: 0x4B24, symBinAddr: 0x100006320, symSize: 0x14 }
  - { offsetInCU: 0x1A1EB, offset: 0x1A1EB, size: 0x8, addend: 0x0, symName: __ZNSt3__19allocatorIcE10deallocateB8ue170006EPcm, symObjAddr: 0x4B38, symBinAddr: 0x100006334, symSize: 0x40 }
  - { offsetInCU: 0x1A22D, offset: 0x1A22D, size: 0x8, addend: 0x0, symName: __ZNSt3__117__compressed_pairINS_12basic_stringIcNS_11char_traitsIcEENS_9allocatorIcEEE5__repES5_E6secondB8ue170006Ev, symObjAddr: 0x4B78, symBinAddr: 0x100006374, symSize: 0x24 }
  - { offsetInCU: 0x1A253, offset: 0x1A253, size: 0x8, addend: 0x0, symName: __ZNSt3__122__compressed_pair_elemINS_9allocatorIcEELi1ELb1EE5__getB8ue170006Ev, symObjAddr: 0x4B9C, symBinAddr: 0x100006398, symSize: 0x14 }
  - { offsetInCU: 0x1A279, offset: 0x1A279, size: 0x8, addend: 0x0, symName: __ZNSt3__112basic_stringIcNS_11char_traitsIcEENS_9allocatorIcEEE19__move_assign_allocB8ue170006ERS5_NS_17integral_constantIbLb1EEE, symObjAddr: 0x4BB0, symBinAddr: 0x1000063AC, symSize: 0x38 }
  - { offsetInCU: 0x1A2B9, offset: 0x1A2B9, size: 0x8, addend: 0x0, symName: __ZNSt3__114pointer_traitsIPcE10pointer_toB8ue170006ERc, symObjAddr: 0x4BE8, symBinAddr: 0x1000063E4, symSize: 0x14 }
  - { offsetInCU: 0x1A2DC, offset: 0x1A2DC, size: 0x8, addend: 0x0, symName: __ZNKSt3__112basic_stringIcNS_11char_traitsIcEENS_9allocatorIcEEE4dataB8ue170006Ev, symObjAddr: 0x4BFC, symBinAddr: 0x1000063F8, symSize: 0x28 }
  - { offsetInCU: 0x1A302, offset: 0x1A302, size: 0x8, addend: 0x0, symName: __ZNKSt3__112basic_stringIcNS_11char_traitsIcEENS_9allocatorIcEEE13__get_pointerB8ue170006Ev, symObjAddr: 0x4C38, symBinAddr: 0x100006434, symSize: 0x54 }
  - { offsetInCU: 0x1A328, offset: 0x1A328, size: 0x8, addend: 0x0, symName: __ZNKSt3__112basic_stringIcNS_11char_traitsIcEENS_9allocatorIcEEE18__get_long_pointerB8ue170006Ev, symObjAddr: 0x4C8C, symBinAddr: 0x100006488, symSize: 0x28 }
  - { offsetInCU: 0x1A34E, offset: 0x1A34E, size: 0x8, addend: 0x0, symName: __ZNKSt3__112basic_stringIcNS_11char_traitsIcEENS_9allocatorIcEEE19__get_short_pointerB8ue170006Ev, symObjAddr: 0x4CB4, symBinAddr: 0x1000064B0, symSize: 0x28 }
  - { offsetInCU: 0x1A374, offset: 0x1A374, size: 0x8, addend: 0x0, symName: __ZNSt3__114pointer_traitsIPKcE10pointer_toB8ue170006ERS1_, symObjAddr: 0x4CDC, symBinAddr: 0x1000064D8, symSize: 0x14 }
  - { offsetInCU: 0x1A397, offset: 0x1A397, size: 0x8, addend: 0x0, symName: __ZNSt3__112basic_stringIcNS_11char_traitsIcEENS_9allocatorIcEEEC2B8ue170006ILi0EEEPKc, symObjAddr: 0x4CF0, symBinAddr: 0x1000064EC, symSize: 0x58 }
  - { offsetInCU: 0x1A3D6, offset: 0x1A3D6, size: 0x8, addend: 0x0, symName: __ZNSt3__111char_traitsIcE6lengthB8ue170006EPKc, symObjAddr: 0x4D48, symBinAddr: 0x100006544, symSize: 0x34 }
  - { offsetInCU: 0x1A3F9, offset: 0x1A3F9, size: 0x8, addend: 0x0, symName: __ZNSt3__16vectorINS_12basic_stringIcNS_11char_traitsIcEENS_9allocatorIcEEEENS4_IS6_EEEC2B8ue170006ESt16initializer_listIS6_E, symObjAddr: 0x4DA0, symBinAddr: 0x10000659C, symSize: 0x120 }
  - { offsetInCU: 0x1A44F, offset: 0x1A44F, size: 0x8, addend: 0x0, symName: __ZNSt3__117__compressed_pairIPNS_12basic_stringIcNS_11char_traitsIcEENS_9allocatorIcEEEENS4_IS6_EEEC1B8ue170006IDnNS_18__default_init_tagEEEOT_OT0_, symObjAddr: 0x4EC0, symBinAddr: 0x1000066BC, symSize: 0x3C }
  - { offsetInCU: 0x1A4A7, offset: 0x1A4A7, size: 0x8, addend: 0x0, symName: __ZNSt3__16vectorINS_12basic_stringIcNS_11char_traitsIcEENS_9allocatorIcEEEENS4_IS6_EEE16__destroy_vectorC1B8ue170006ERS8_, symObjAddr: 0x4F3C, symBinAddr: 0x100006738, symSize: 0x34 }
  - { offsetInCU: 0x1A4E0, offset: 0x1A4E0, size: 0x8, addend: 0x0, symName: __ZNKSt16initializer_listINSt3__112basic_stringIcNS0_11char_traitsIcEENS0_9allocatorIcEEEEE4sizeB8ue170006Ev, symObjAddr: 0x4F70, symBinAddr: 0x10000676C, symSize: 0x18 }
  - { offsetInCU: 0x1A506, offset: 0x1A506, size: 0x8, addend: 0x0, symName: __ZNSt3__16vectorINS_12basic_stringIcNS_11char_traitsIcEENS_9allocatorIcEEEENS4_IS6_EEE11__vallocateB8ue170006Em, symObjAddr: 0x4F88, symBinAddr: 0x100006784, symSize: 0xB4 }
  - { offsetInCU: 0x1A54A, offset: 0x1A54A, size: 0x8, addend: 0x0, symName: __ZNSt3__16vectorINS_12basic_stringIcNS_11char_traitsIcEENS_9allocatorIcEEEENS4_IS6_EEE18__construct_at_endIPKS6_SB_EEvT_T0_m, symObjAddr: 0x503C, symBinAddr: 0x100006838, symSize: 0x8C }
  - { offsetInCU: 0x1A5C0, offset: 0x1A5C0, size: 0x8, addend: 0x0, symName: __ZNKSt16initializer_listINSt3__112basic_stringIcNS0_11char_traitsIcEENS0_9allocatorIcEEEEE5beginB8ue170006Ev, symObjAddr: 0x50C8, symBinAddr: 0x1000068C4, symSize: 0x18 }
  - { offsetInCU: 0x1A5E6, offset: 0x1A5E6, size: 0x8, addend: 0x0, symName: __ZNKSt16initializer_listINSt3__112basic_stringIcNS0_11char_traitsIcEENS0_9allocatorIcEEEEE3endB8ue170006Ev, symObjAddr: 0x50E0, symBinAddr: 0x1000068DC, symSize: 0x28 }
  - { offsetInCU: 0x1A60C, offset: 0x1A60C, size: 0x8, addend: 0x0, symName: __ZNSt3__128__exception_guard_exceptionsINS_6vectorINS_12basic_stringIcNS_11char_traitsIcEENS_9allocatorIcEEEENS5_IS7_EEE16__destroy_vectorEE10__completeB8ue170006Ev, symObjAddr: 0x5108, symBinAddr: 0x100006904, symSize: 0x1C }
  - { offsetInCU: 0x1A632, offset: 0x1A632, size: 0x8, addend: 0x0, symName: __ZNSt3__128__exception_guard_exceptionsINS_6vectorINS_12basic_stringIcNS_11char_traitsIcEENS_9allocatorIcEEEENS5_IS7_EEE16__destroy_vectorEED1B8ue170006Ev, symObjAddr: 0x5124, symBinAddr: 0x100006920, symSize: 0x2C }
  - { offsetInCU: 0x1A65C, offset: 0x1A65C, size: 0x8, addend: 0x0, symName: __ZNSt3__117__compressed_pairIPNS_12basic_stringIcNS_11char_traitsIcEENS_9allocatorIcEEEENS4_IS6_EEEC2B8ue170006IDnNS_18__default_init_tagEEEOT_OT0_, symObjAddr: 0x5150, symBinAddr: 0x10000694C, symSize: 0x40 }
  - { offsetInCU: 0x1A6B4, offset: 0x1A6B4, size: 0x8, addend: 0x0, symName: __ZNSt3__122__compressed_pair_elemIPNS_12basic_stringIcNS_11char_traitsIcEENS_9allocatorIcEEEELi0ELb0EEC2B8ue170006IDnvEEOT_, symObjAddr: 0x5190, symBinAddr: 0x10000698C, symSize: 0x1C }
  - { offsetInCU: 0x1A6F6, offset: 0x1A6F6, size: 0x8, addend: 0x0, symName: __ZNSt3__122__compressed_pair_elemINS_9allocatorINS_12basic_stringIcNS_11char_traitsIcEENS1_IcEEEEEELi1ELb1EEC2B8ue170006ENS_18__default_init_tagE, symObjAddr: 0x51AC, symBinAddr: 0x1000069A8, symSize: 0x2C }
  - { offsetInCU: 0x1A72B, offset: 0x1A72B, size: 0x8, addend: 0x0, symName: __ZNSt3__19allocatorINS_12basic_stringIcNS_11char_traitsIcEENS0_IcEEEEEC2B8ue170006Ev, symObjAddr: 0x51D8, symBinAddr: 0x1000069D4, symSize: 0x2C }
  - { offsetInCU: 0x1A755, offset: 0x1A755, size: 0x8, addend: 0x0, symName: __ZNSt3__116__non_trivial_ifILb1ENS_9allocatorINS_12basic_stringIcNS_11char_traitsIcEENS1_IcEEEEEEEC2B8ue170006Ev, symObjAddr: 0x5204, symBinAddr: 0x100006A00, symSize: 0x14 }
  - { offsetInCU: 0x1A77F, offset: 0x1A77F, size: 0x8, addend: 0x0, symName: __ZNSt3__128__exception_guard_exceptionsINS_6vectorINS_12basic_stringIcNS_11char_traitsIcEENS_9allocatorIcEEEENS5_IS7_EEE16__destroy_vectorEEC1B8ue170006ESA_, symObjAddr: 0x5218, symBinAddr: 0x100006A14, symSize: 0x34 }
  - { offsetInCU: 0x1A7B7, offset: 0x1A7B7, size: 0x8, addend: 0x0, symName: __ZNSt3__128__exception_guard_exceptionsINS_6vectorINS_12basic_stringIcNS_11char_traitsIcEENS_9allocatorIcEEEENS5_IS7_EEE16__destroy_vectorEEC2B8ue170006ESA_, symObjAddr: 0x524C, symBinAddr: 0x100006A48, symSize: 0x24 }
  - { offsetInCU: 0x1A7EF, offset: 0x1A7EF, size: 0x8, addend: 0x0, symName: __ZNSt3__16vectorINS_12basic_stringIcNS_11char_traitsIcEENS_9allocatorIcEEEENS4_IS6_EEE16__destroy_vectorC2B8ue170006ERS8_, symObjAddr: 0x5270, symBinAddr: 0x100006A6C, symSize: 0x20 }
  - { offsetInCU: 0x1A828, offset: 0x1A828, size: 0x8, addend: 0x0, symName: __ZNKSt3__16vectorINS_12basic_stringIcNS_11char_traitsIcEENS_9allocatorIcEEEENS4_IS6_EEE8max_sizeEv, symObjAddr: 0x5290, symBinAddr: 0x100006A8C, symSize: 0x60 }
  - { offsetInCU: 0x1A850, offset: 0x1A850, size: 0x8, addend: 0x0, symName: __ZNKSt3__16vectorINS_12basic_stringIcNS_11char_traitsIcEENS_9allocatorIcEEEENS4_IS6_EEE20__throw_length_errorB8ue170006Ev, symObjAddr: 0x52F0, symBinAddr: 0x100006AEC, symSize: 0x1C }
  - { offsetInCU: 0x1A876, offset: 0x1A876, size: 0x8, addend: 0x0, symName: __ZNSt3__16vectorINS_12basic_stringIcNS_11char_traitsIcEENS_9allocatorIcEEEENS4_IS6_EEE7__allocB8ue170006Ev, symObjAddr: 0x534C, symBinAddr: 0x100006B48, symSize: 0x28 }
  - { offsetInCU: 0x1A89C, offset: 0x1A89C, size: 0x8, addend: 0x0, symName: __ZNSt3__16vectorINS_12basic_stringIcNS_11char_traitsIcEENS_9allocatorIcEEEENS4_IS6_EEE9__end_capB8ue170006Ev, symObjAddr: 0x5374, symBinAddr: 0x100006B70, symSize: 0x28 }
  - { offsetInCU: 0x1A8C2, offset: 0x1A8C2, size: 0x8, addend: 0x0, symName: __ZNKSt3__16vectorINS_12basic_stringIcNS_11char_traitsIcEENS_9allocatorIcEEEENS4_IS6_EEE14__annotate_newB8ue170006Em, symObjAddr: 0x539C, symBinAddr: 0x100006B98, symSize: 0xC8 }
  - { offsetInCU: 0x1A902, offset: 0x1A902, size: 0x8, addend: 0x0, symName: __ZNSt3__116allocator_traitsINS_9allocatorINS_12basic_stringIcNS_11char_traitsIcEENS1_IcEEEEEEE8max_sizeB8ue170006IS7_vEEmRKS7_, symObjAddr: 0x5490, symBinAddr: 0x100006C8C, symSize: 0x24 }
  - { offsetInCU: 0x1A930, offset: 0x1A930, size: 0x8, addend: 0x0, symName: __ZNKSt3__16vectorINS_12basic_stringIcNS_11char_traitsIcEENS_9allocatorIcEEEENS4_IS6_EEE7__allocB8ue170006Ev, symObjAddr: 0x54B4, symBinAddr: 0x100006CB0, symSize: 0x28 }
  - { offsetInCU: 0x1A956, offset: 0x1A956, size: 0x8, addend: 0x0, symName: __ZNSt3__114numeric_limitsIlE3maxB8ue170006Ev, symObjAddr: 0x54DC, symBinAddr: 0x100006CD8, symSize: 0x14 }
  - { offsetInCU: 0x1A975, offset: 0x1A975, size: 0x8, addend: 0x0, symName: __ZNKSt3__16__lessIvvEclB8ue170006ImmEEbRKT_RKT0_, symObjAddr: 0x5544, symBinAddr: 0x100006D40, symSize: 0x34 }
  - { offsetInCU: 0x1A9C9, offset: 0x1A9C9, size: 0x8, addend: 0x0, symName: __ZNKSt3__19allocatorINS_12basic_stringIcNS_11char_traitsIcEENS0_IcEEEEE8max_sizeB8ue170006Ev, symObjAddr: 0x5578, symBinAddr: 0x100006D74, symSize: 0x18 }
  - { offsetInCU: 0x1A9EF, offset: 0x1A9EF, size: 0x8, addend: 0x0, symName: __ZNKSt3__117__compressed_pairIPNS_12basic_stringIcNS_11char_traitsIcEENS_9allocatorIcEEEENS4_IS6_EEE6secondB8ue170006Ev, symObjAddr: 0x5590, symBinAddr: 0x100006D8C, symSize: 0x24 }
  - { offsetInCU: 0x1AA15, offset: 0x1AA15, size: 0x8, addend: 0x0, symName: __ZNKSt3__122__compressed_pair_elemINS_9allocatorINS_12basic_stringIcNS_11char_traitsIcEENS1_IcEEEEEELi1ELb1EE5__getB8ue170006Ev, symObjAddr: 0x55B4, symBinAddr: 0x100006DB0, symSize: 0x14 }
  - { offsetInCU: 0x1AA3B, offset: 0x1AA3B, size: 0x8, addend: 0x0, symName: __ZNSt3__123__libcpp_numeric_limitsIlLb1EE3maxB8ue170006Ev, symObjAddr: 0x55C8, symBinAddr: 0x100006DC4, symSize: 0x8 }
  - { offsetInCU: 0x1AA4F, offset: 0x1AA4F, size: 0x8, addend: 0x0, symName: __ZNSt12length_errorC1B8ue170006EPKc, symObjAddr: 0x5634, symBinAddr: 0x100006E30, symSize: 0x34 }
  - { offsetInCU: 0x1AA87, offset: 0x1AA87, size: 0x8, addend: 0x0, symName: __ZNSt12length_errorC2B8ue170006EPKc, symObjAddr: 0x5668, symBinAddr: 0x100006E64, symSize: 0x4C }
  - { offsetInCU: 0x1AABF, offset: 0x1AABF, size: 0x8, addend: 0x0, symName: __ZNSt3__19allocatorINS_12basic_stringIcNS_11char_traitsIcEENS0_IcEEEEE8allocateB8ue170006Em, symObjAddr: 0x56B4, symBinAddr: 0x100006EB0, symSize: 0x5C }
  - { offsetInCU: 0x1AAF3, offset: 0x1AAF3, size: 0x8, addend: 0x0, symName: __ZNSt3__117__compressed_pairIPNS_12basic_stringIcNS_11char_traitsIcEENS_9allocatorIcEEEENS4_IS6_EEE6secondB8ue170006Ev, symObjAddr: 0x5790, symBinAddr: 0x100006F8C, symSize: 0x24 }
  - { offsetInCU: 0x1AB19, offset: 0x1AB19, size: 0x8, addend: 0x0, symName: __ZNSt3__122__compressed_pair_elemINS_9allocatorINS_12basic_stringIcNS_11char_traitsIcEENS1_IcEEEEEELi1ELb1EE5__getB8ue170006Ev, symObjAddr: 0x57B4, symBinAddr: 0x100006FB0, symSize: 0x14 }
  - { offsetInCU: 0x1AB3F, offset: 0x1AB3F, size: 0x8, addend: 0x0, symName: __ZNSt3__117__compressed_pairIPNS_12basic_stringIcNS_11char_traitsIcEENS_9allocatorIcEEEENS4_IS6_EEE5firstB8ue170006Ev, symObjAddr: 0x57C8, symBinAddr: 0x100006FC4, symSize: 0x24 }
  - { offsetInCU: 0x1AB65, offset: 0x1AB65, size: 0x8, addend: 0x0, symName: __ZNSt3__122__compressed_pair_elemIPNS_12basic_stringIcNS_11char_traitsIcEENS_9allocatorIcEEEELi0ELb0EE5__getB8ue170006Ev, symObjAddr: 0x57EC, symBinAddr: 0x100006FE8, symSize: 0x14 }
  - { offsetInCU: 0x1AB8B, offset: 0x1AB8B, size: 0x8, addend: 0x0, symName: __ZNKSt3__16vectorINS_12basic_stringIcNS_11char_traitsIcEENS_9allocatorIcEEEENS4_IS6_EEE31__annotate_contiguous_containerB8ue170006EPKvSA_SA_SA_, symObjAddr: 0x5800, symBinAddr: 0x100006FFC, symSize: 0x20 }
  - { offsetInCU: 0x1ABDD, offset: 0x1ABDD, size: 0x8, addend: 0x0, symName: __ZNKSt3__16vectorINS_12basic_stringIcNS_11char_traitsIcEENS_9allocatorIcEEEENS4_IS6_EEE4dataB8ue170006Ev, symObjAddr: 0x5820, symBinAddr: 0x10000701C, symSize: 0x28 }
  - { offsetInCU: 0x1AC03, offset: 0x1AC03, size: 0x8, addend: 0x0, symName: __ZNKSt3__16vectorINS_12basic_stringIcNS_11char_traitsIcEENS_9allocatorIcEEEENS4_IS6_EEE8capacityB8ue170006Ev, symObjAddr: 0x5848, symBinAddr: 0x100007044, symSize: 0x40 }
  - { offsetInCU: 0x1AC29, offset: 0x1AC29, size: 0x8, addend: 0x0, symName: __ZNKSt3__16vectorINS_12basic_stringIcNS_11char_traitsIcEENS_9allocatorIcEEEENS4_IS6_EEE9__end_capB8ue170006Ev, symObjAddr: 0x589C, symBinAddr: 0x100007098, symSize: 0x28 }
  - { offsetInCU: 0x1AC4F, offset: 0x1AC4F, size: 0x8, addend: 0x0, symName: __ZNKSt3__117__compressed_pairIPNS_12basic_stringIcNS_11char_traitsIcEENS_9allocatorIcEEEENS4_IS6_EEE5firstB8ue170006Ev, symObjAddr: 0x58C4, symBinAddr: 0x1000070C0, symSize: 0x24 }
  - { offsetInCU: 0x1AC75, offset: 0x1AC75, size: 0x8, addend: 0x0, symName: __ZNKSt3__122__compressed_pair_elemIPNS_12basic_stringIcNS_11char_traitsIcEENS_9allocatorIcEEEELi0ELb0EE5__getB8ue170006Ev, symObjAddr: 0x58E8, symBinAddr: 0x1000070E4, symSize: 0x14 }
  - { offsetInCU: 0x1ACB7, offset: 0x1ACB7, size: 0x8, addend: 0x0, symName: __ZNSt3__16vectorINS_12basic_stringIcNS_11char_traitsIcEENS_9allocatorIcEEEENS4_IS6_EEE21_ConstructTransactionC1B8ue170006ERS8_m, symObjAddr: 0x58FC, symBinAddr: 0x1000070F8, symSize: 0x3C }
  - { offsetInCU: 0x1ACFF, offset: 0x1ACFF, size: 0x8, addend: 0x0, symName: __ZNSt3__16vectorINS_12basic_stringIcNS_11char_traitsIcEENS_9allocatorIcEEEENS4_IS6_EEE21_ConstructTransactionD1B8ue170006Ev, symObjAddr: 0x59B8, symBinAddr: 0x1000071B4, symSize: 0x2C }
  - { offsetInCU: 0x1AD29, offset: 0x1AD29, size: 0x8, addend: 0x0, symName: __ZNSt3__16vectorINS_12basic_stringIcNS_11char_traitsIcEENS_9allocatorIcEEEENS4_IS6_EEE21_ConstructTransactionC2B8ue170006ERS8_m, symObjAddr: 0x59E4, symBinAddr: 0x1000071E0, symSize: 0x4C }
  - { offsetInCU: 0x1AD94, offset: 0x1AD94, size: 0x8, addend: 0x0, symName: __ZNSt3__14pairIPKNS_12basic_stringIcNS_11char_traitsIcEENS_9allocatorIcEEEES8_EC1B8ue170006IS8_S8_LPv0EEEOT_OT0_, symObjAddr: 0x5C40, symBinAddr: 0x10000743C, symSize: 0x3C }
  - { offsetInCU: 0x1ADF2, offset: 0x1ADF2, size: 0x8, addend: 0x0, symName: __ZNSt3__14pairIPKNS_12basic_stringIcNS_11char_traitsIcEENS_9allocatorIcEEEES8_EC2B8ue170006IS8_S8_LPv0EEEOT_OT0_, symObjAddr: 0x5C7C, symBinAddr: 0x100007478, symSize: 0x34 }
  - { offsetInCU: 0x1AE50, offset: 0x1AE50, size: 0x8, addend: 0x0, symName: __ZNSt3__118__unwrap_iter_implIPKNS_12basic_stringIcNS_11char_traitsIcEENS_9allocatorIcEEEELb1EE8__unwrapB8ue170006ES8_, symObjAddr: 0x5CB0, symBinAddr: 0x1000074AC, symSize: 0x24 }
  - { offsetInCU: 0x1AE73, offset: 0x1AE73, size: 0x8, addend: 0x0, symName: __ZNSt3__129_AllocatorDestroyRangeReverseINS_9allocatorINS_12basic_stringIcNS_11char_traitsIcEENS1_IcEEEEEEPS6_EC1B8ue170006ERS7_RS8_SB_, symObjAddr: 0x5D34, symBinAddr: 0x100007530, symSize: 0x44 }
  - { offsetInCU: 0x1AECA, offset: 0x1AECA, size: 0x8, addend: 0x0, symName: __ZNSt3__116allocator_traitsINS_9allocatorINS_12basic_stringIcNS_11char_traitsIcEENS1_IcEEEEEEE9constructB8ue170006IS6_JRKS6_EvEEvRS7_PT_DpOT0_, symObjAddr: 0x5D78, symBinAddr: 0x100007574, symSize: 0x34 }
  - { offsetInCU: 0x1AF21, offset: 0x1AF21, size: 0x8, addend: 0x0, symName: __ZNSt3__128__exception_guard_exceptionsINS_29_AllocatorDestroyRangeReverseINS_9allocatorINS_12basic_stringIcNS_11char_traitsIcEENS2_IcEEEEEEPS7_EEE10__completeB8ue170006Ev, symObjAddr: 0x5DAC, symBinAddr: 0x1000075A8, symSize: 0x1C }
  - { offsetInCU: 0x1AF47, offset: 0x1AF47, size: 0x8, addend: 0x0, symName: __ZNSt3__128__exception_guard_exceptionsINS_29_AllocatorDestroyRangeReverseINS_9allocatorINS_12basic_stringIcNS_11char_traitsIcEENS2_IcEEEEEEPS7_EEED1B8ue170006Ev, symObjAddr: 0x5DC8, symBinAddr: 0x1000075C4, symSize: 0x2C }
  - { offsetInCU: 0x1AF71, offset: 0x1AF71, size: 0x8, addend: 0x0, symName: __ZNSt3__128__exception_guard_exceptionsINS_29_AllocatorDestroyRangeReverseINS_9allocatorINS_12basic_stringIcNS_11char_traitsIcEENS2_IcEEEEEEPS7_EEEC1B8ue170006ESA_, symObjAddr: 0x5DF4, symBinAddr: 0x1000075F0, symSize: 0x34 }
  - { offsetInCU: 0x1AFAA, offset: 0x1AFAA, size: 0x8, addend: 0x0, symName: __ZNSt3__128__exception_guard_exceptionsINS_29_AllocatorDestroyRangeReverseINS_9allocatorINS_12basic_stringIcNS_11char_traitsIcEENS2_IcEEEEEEPS7_EEEC2B8ue170006ESA_, symObjAddr: 0x5E28, symBinAddr: 0x100007624, symSize: 0x30 }
  - { offsetInCU: 0x1AFE3, offset: 0x1AFE3, size: 0x8, addend: 0x0, symName: __ZNSt3__129_AllocatorDestroyRangeReverseINS_9allocatorINS_12basic_stringIcNS_11char_traitsIcEENS1_IcEEEEEEPS6_EC2B8ue170006ERS7_RS8_SB_, symObjAddr: 0x5E58, symBinAddr: 0x100007654, symSize: 0x38 }
  - { offsetInCU: 0x1B03A, offset: 0x1B03A, size: 0x8, addend: 0x0, symName: __ZNSt3__19allocatorINS_12basic_stringIcNS_11char_traitsIcEENS0_IcEEEEE9constructB8ue170006IS5_JRKS5_EEEvPT_DpOT0_, symObjAddr: 0x5E90, symBinAddr: 0x10000768C, symSize: 0x30 }
  - { offsetInCU: 0x1B090, offset: 0x1B090, size: 0x8, addend: 0x0, symName: __ZNSt3__128__exception_guard_exceptionsINS_29_AllocatorDestroyRangeReverseINS_9allocatorINS_12basic_stringIcNS_11char_traitsIcEENS2_IcEEEEEEPS7_EEED2B8ue170006Ev, symObjAddr: 0x5EC0, symBinAddr: 0x1000076BC, symSize: 0x50 }
  - { offsetInCU: 0x1B0BA, offset: 0x1B0BA, size: 0x8, addend: 0x0, symName: __ZNKSt3__129_AllocatorDestroyRangeReverseINS_9allocatorINS_12basic_stringIcNS_11char_traitsIcEENS1_IcEEEEEEPS6_EclB8ue170006Ev, symObjAddr: 0x5F10, symBinAddr: 0x10000770C, symSize: 0x68 }
  - { offsetInCU: 0x1B0E0, offset: 0x1B0E0, size: 0x8, addend: 0x0, symName: __ZNSt3__116reverse_iteratorIPNS_12basic_stringIcNS_11char_traitsIcEENS_9allocatorIcEEEEEC1B8ue170006ES7_, symObjAddr: 0x5FE8, symBinAddr: 0x1000077E4, symSize: 0x34 }
  - { offsetInCU: 0x1B118, offset: 0x1B118, size: 0x8, addend: 0x0, symName: __ZNSt3__116allocator_traitsINS_9allocatorINS_12basic_stringIcNS_11char_traitsIcEENS1_IcEEEEEEE7destroyB8ue170006IS6_vEEvRS7_PT_, symObjAddr: 0x6064, symBinAddr: 0x100007860, symSize: 0x2C }
  - { offsetInCU: 0x1B155, offset: 0x1B155, size: 0x8, addend: 0x0, symName: __ZNSt3__116reverse_iteratorIPNS_12basic_stringIcNS_11char_traitsIcEENS_9allocatorIcEEEEEppB8ue170006Ev, symObjAddr: 0x60B4, symBinAddr: 0x1000078B0, symSize: 0x20 }
  - { offsetInCU: 0x1B17B, offset: 0x1B17B, size: 0x8, addend: 0x0, symName: __ZNKSt3__116reverse_iteratorIPNS_12basic_stringIcNS_11char_traitsIcEENS_9allocatorIcEEEEE4baseB8ue170006Ev, symObjAddr: 0x60D4, symBinAddr: 0x1000078D0, symSize: 0x18 }
  - { offsetInCU: 0x1B1A1, offset: 0x1B1A1, size: 0x8, addend: 0x0, symName: __ZNSt3__19allocatorINS_12basic_stringIcNS_11char_traitsIcEENS0_IcEEEEE7destroyB8ue170006EPS5_, symObjAddr: 0x60EC, symBinAddr: 0x1000078E8, symSize: 0x28 }
  - { offsetInCU: 0x1B1DB, offset: 0x1B1DB, size: 0x8, addend: 0x0, symName: __ZNSt3__119__to_address_helperINS_16reverse_iteratorIPNS_12basic_stringIcNS_11char_traitsIcEENS_9allocatorIcEEEEEEvE6__callB8ue170006ERKS9_, symObjAddr: 0x6114, symBinAddr: 0x100007910, symSize: 0x38 }
  - { offsetInCU: 0x1B1FE, offset: 0x1B1FE, size: 0x8, addend: 0x0, symName: __ZNKSt3__116reverse_iteratorIPNS_12basic_stringIcNS_11char_traitsIcEENS_9allocatorIcEEEEEptB8ue170006Ev, symObjAddr: 0x614C, symBinAddr: 0x100007948, symSize: 0x24 }
  - { offsetInCU: 0x1B224, offset: 0x1B224, size: 0x8, addend: 0x0, symName: __ZNKSt3__116reverse_iteratorIPNS_12basic_stringIcNS_11char_traitsIcEENS_9allocatorIcEEEEEdeB8ue170006Ev, symObjAddr: 0x6170, symBinAddr: 0x10000796C, symSize: 0x28 }
  - { offsetInCU: 0x1B258, offset: 0x1B258, size: 0x8, addend: 0x0, symName: __ZNSt3__116reverse_iteratorIPNS_12basic_stringIcNS_11char_traitsIcEENS_9allocatorIcEEEEEC2B8ue170006ES7_, symObjAddr: 0x6198, symBinAddr: 0x100007994, symSize: 0x28 }
  - { offsetInCU: 0x1B290, offset: 0x1B290, size: 0x8, addend: 0x0, symName: __ZNSt3__118__unwrap_iter_implIPNS_12basic_stringIcNS_11char_traitsIcEENS_9allocatorIcEEEELb1EE8__unwrapB8ue170006ES7_, symObjAddr: 0x61C0, symBinAddr: 0x1000079BC, symSize: 0x24 }
  - { offsetInCU: 0x1B2B3, offset: 0x1B2B3, size: 0x8, addend: 0x0, symName: __ZNSt3__118__unwrap_iter_implIPNS_12basic_stringIcNS_11char_traitsIcEENS_9allocatorIcEEEELb1EE8__rewrapB8ue170006ES7_S7_, symObjAddr: 0x61E4, symBinAddr: 0x1000079E0, symSize: 0x58 }
  - { offsetInCU: 0x1B2E4, offset: 0x1B2E4, size: 0x8, addend: 0x0, symName: __ZNSt3__16vectorINS_12basic_stringIcNS_11char_traitsIcEENS_9allocatorIcEEEENS4_IS6_EEE21_ConstructTransactionD2B8ue170006Ev, symObjAddr: 0x623C, symBinAddr: 0x100007A38, symSize: 0x20 }
  - { offsetInCU: 0x1B30E, offset: 0x1B30E, size: 0x8, addend: 0x0, symName: __ZNSt3__128__exception_guard_exceptionsINS_6vectorINS_12basic_stringIcNS_11char_traitsIcEENS_9allocatorIcEEEENS5_IS7_EEE16__destroy_vectorEED2B8ue170006Ev, symObjAddr: 0x625C, symBinAddr: 0x100007A58, symSize: 0x50 }
  - { offsetInCU: 0x1B338, offset: 0x1B338, size: 0x8, addend: 0x0, symName: __ZNSt3__16vectorINS_12basic_stringIcNS_11char_traitsIcEENS_9allocatorIcEEEENS4_IS6_EEE16__destroy_vectorclB8ue170006Ev, symObjAddr: 0x62AC, symBinAddr: 0x100007AA8, symSize: 0x90 }
  - { offsetInCU: 0x1B35E, offset: 0x1B35E, size: 0x8, addend: 0x0, symName: __ZNSt3__16vectorINS_12basic_stringIcNS_11char_traitsIcEENS_9allocatorIcEEEENS4_IS6_EEE7__clearB8ue170006Ev, symObjAddr: 0x633C, symBinAddr: 0x100007B38, symSize: 0x28 }
  - { offsetInCU: 0x1B384, offset: 0x1B384, size: 0x8, addend: 0x0, symName: __ZNKSt3__16vectorINS_12basic_stringIcNS_11char_traitsIcEENS_9allocatorIcEEEENS4_IS6_EEE17__annotate_deleteB8ue170006Ev, symObjAddr: 0x6364, symBinAddr: 0x100007B60, symSize: 0xD4 }
  - { offsetInCU: 0x1B3AA, offset: 0x1B3AA, size: 0x8, addend: 0x0, symName: __ZNSt3__116allocator_traitsINS_9allocatorINS_12basic_stringIcNS_11char_traitsIcEENS1_IcEEEEEEE10deallocateB8ue170006ERS7_PS6_m, symObjAddr: 0x6438, symBinAddr: 0x100007C34, symSize: 0x34 }
  - { offsetInCU: 0x1B3EC, offset: 0x1B3EC, size: 0x8, addend: 0x0, symName: __ZNSt3__16vectorINS_12basic_stringIcNS_11char_traitsIcEENS_9allocatorIcEEEENS4_IS6_EEE22__base_destruct_at_endB8ue170006EPS6_, symObjAddr: 0x646C, symBinAddr: 0x100007C68, symSize: 0x8C }
  - { offsetInCU: 0x1B430, offset: 0x1B430, size: 0x8, addend: 0x0, symName: __ZNSt3__19allocatorINS_12basic_stringIcNS_11char_traitsIcEENS0_IcEEEEE10deallocateB8ue170006EPS5_m, symObjAddr: 0x64F8, symBinAddr: 0x100007CF4, symSize: 0x44 }
  - { offsetInCU: 0x1B472, offset: 0x1B472, size: 0x8, addend: 0x0, symName: __ZNSt3__16vectorINS_12basic_stringIcNS_11char_traitsIcEENS_9allocatorIcEEEENS4_IS6_EEED2B8ue170006Ev, symObjAddr: 0x653C, symBinAddr: 0x100007D38, symSize: 0x40 }
  - { offsetInCU: 0x1B49C, offset: 0x1B49C, size: 0x8, addend: 0x0, symName: __ZNSt3__15stackItNS_5dequeItNS_9allocatorItEEEEEC2B8ue170006Ev, symObjAddr: 0x657C, symBinAddr: 0x100007D78, symSize: 0x2C }
  - { offsetInCU: 0x1B4C6, offset: 0x1B4C6, size: 0x8, addend: 0x0, symName: __ZNSt3__15dequeItNS_9allocatorItEEEC1B8ue170006Ev, symObjAddr: 0x65A8, symBinAddr: 0x100007DA4, symSize: 0x2C }
  - { offsetInCU: 0x1B4F0, offset: 0x1B4F0, size: 0x8, addend: 0x0, symName: __ZNSt3__15dequeItNS_9allocatorItEEEC2B8ue170006Ev, symObjAddr: 0x65D4, symBinAddr: 0x100007DD0, symSize: 0x5C }
  - { offsetInCU: 0x1B51A, offset: 0x1B51A, size: 0x8, addend: 0x0, symName: __ZNSt3__114__split_bufferIPtNS_9allocatorIS1_EEEC1B8ue170006Ev, symObjAddr: 0x6630, symBinAddr: 0x100007E2C, symSize: 0x2C }
  - { offsetInCU: 0x1B54A, offset: 0x1B54A, size: 0x8, addend: 0x0, symName: __ZNSt3__117__compressed_pairImNS_9allocatorItEEEC1B8ue170006IiNS_18__default_init_tagEEEOT_OT0_, symObjAddr: 0x665C, symBinAddr: 0x100007E58, symSize: 0x3C }
  - { offsetInCU: 0x1B5A2, offset: 0x1B5A2, size: 0x8, addend: 0x0, symName: __ZNSt3__114__split_bufferIPtNS_9allocatorIS1_EEEC2B8ue170006Ev, symObjAddr: 0x6698, symBinAddr: 0x100007E94, symSize: 0x50 }
  - { offsetInCU: 0x1B5CC, offset: 0x1B5CC, size: 0x8, addend: 0x0, symName: __ZNSt3__117__compressed_pairIPPtNS_9allocatorIS1_EEEC1B8ue170006IDnNS_18__default_init_tagEEEOT_OT0_, symObjAddr: 0x66E8, symBinAddr: 0x100007EE4, symSize: 0x3C }
  - { offsetInCU: 0x1B624, offset: 0x1B624, size: 0x8, addend: 0x0, symName: __ZNSt3__117__compressed_pairIPPtNS_9allocatorIS1_EEEC2B8ue170006IDnNS_18__default_init_tagEEEOT_OT0_, symObjAddr: 0x6724, symBinAddr: 0x100007F20, symSize: 0x40 }
  - { offsetInCU: 0x1B67C, offset: 0x1B67C, size: 0x8, addend: 0x0, symName: __ZNSt3__122__compressed_pair_elemIPPtLi0ELb0EEC2B8ue170006IDnvEEOT_, symObjAddr: 0x6764, symBinAddr: 0x100007F60, symSize: 0x1C }
  - { offsetInCU: 0x1B6BE, offset: 0x1B6BE, size: 0x8, addend: 0x0, symName: __ZNSt3__122__compressed_pair_elemINS_9allocatorIPtEELi1ELb1EEC2B8ue170006ENS_18__default_init_tagE, symObjAddr: 0x6780, symBinAddr: 0x100007F7C, symSize: 0x2C }
  - { offsetInCU: 0x1B6F3, offset: 0x1B6F3, size: 0x8, addend: 0x0, symName: __ZNSt3__19allocatorIPtEC2B8ue170006Ev, symObjAddr: 0x67AC, symBinAddr: 0x100007FA8, symSize: 0x2C }
  - { offsetInCU: 0x1B71D, offset: 0x1B71D, size: 0x8, addend: 0x0, symName: __ZNSt3__116__non_trivial_ifILb1ENS_9allocatorIPtEEEC2B8ue170006Ev, symObjAddr: 0x67D8, symBinAddr: 0x100007FD4, symSize: 0x14 }
  - { offsetInCU: 0x1B747, offset: 0x1B747, size: 0x8, addend: 0x0, symName: __ZNSt3__117__compressed_pairImNS_9allocatorItEEEC2B8ue170006IiNS_18__default_init_tagEEEOT_OT0_, symObjAddr: 0x67EC, symBinAddr: 0x100007FE8, symSize: 0x40 }
  - { offsetInCU: 0x1B79F, offset: 0x1B79F, size: 0x8, addend: 0x0, symName: __ZNSt3__122__compressed_pair_elemImLi0ELb0EEC2B8ue170006IivEEOT_, symObjAddr: 0x682C, symBinAddr: 0x100008028, symSize: 0x24 }
  - { offsetInCU: 0x1B7E1, offset: 0x1B7E1, size: 0x8, addend: 0x0, symName: __ZNSt3__122__compressed_pair_elemINS_9allocatorItEELi1ELb1EEC2B8ue170006ENS_18__default_init_tagE, symObjAddr: 0x6850, symBinAddr: 0x10000804C, symSize: 0x2C }
  - { offsetInCU: 0x1B816, offset: 0x1B816, size: 0x8, addend: 0x0, symName: __ZNSt3__19allocatorItEC2B8ue170006Ev, symObjAddr: 0x687C, symBinAddr: 0x100008078, symSize: 0x2C }
  - { offsetInCU: 0x1B840, offset: 0x1B840, size: 0x8, addend: 0x0, symName: __ZNSt3__116__non_trivial_ifILb1ENS_9allocatorItEEEC2B8ue170006Ev, symObjAddr: 0x68A8, symBinAddr: 0x1000080A4, symSize: 0x14 }
  - { offsetInCU: 0x1B86A, offset: 0x1B86A, size: 0x8, addend: 0x0, symName: __ZNSt3__15stackItNS_5dequeItNS_9allocatorItEEEEEC2B8ue170006ERKS5_, symObjAddr: 0x68BC, symBinAddr: 0x1000080B8, symSize: 0x34 }
  - { offsetInCU: 0x1B8A2, offset: 0x1B8A2, size: 0x8, addend: 0x0, symName: __ZNSt3__15dequeItNS_9allocatorItEEEC1ERKS3_, symObjAddr: 0x68F0, symBinAddr: 0x1000080EC, symSize: 0x34 }
  - { offsetInCU: 0x1B8DD, offset: 0x1B8DD, size: 0x8, addend: 0x0, symName: __ZNSt3__15dequeItNS_9allocatorItEEEC2ERKS3_, symObjAddr: 0x6924, symBinAddr: 0x100008120, symSize: 0xF8 }
  - { offsetInCU: 0x1B923, offset: 0x1B923, size: 0x8, addend: 0x0, symName: __ZNSt3__116allocator_traitsINS_9allocatorItEEE37select_on_container_copy_constructionB8ue170006IS2_vvEES2_RKS2_, symObjAddr: 0x6A1C, symBinAddr: 0x100008218, symSize: 0x10 }
  - { offsetInCU: 0x1B952, offset: 0x1B952, size: 0x8, addend: 0x0, symName: __ZNKSt3__15dequeItNS_9allocatorItEEE7__allocB8ue170006Ev, symObjAddr: 0x6A2C, symBinAddr: 0x100008228, symSize: 0x28 }
  - { offsetInCU: 0x1B978, offset: 0x1B978, size: 0x8, addend: 0x0, symName: __ZNSt3__19allocatorIPtEC1B8ue170006ItEERKNS0_IT_EE, symObjAddr: 0x6A54, symBinAddr: 0x100008250, symSize: 0x34 }
  - { offsetInCU: 0x1B9B6, offset: 0x1B9B6, size: 0x8, addend: 0x0, symName: __ZNSt3__114__split_bufferIPtNS_9allocatorIS1_EEEC1B8ue170006ERKS3_, symObjAddr: 0x6A88, symBinAddr: 0x100008284, symSize: 0x34 }
  - { offsetInCU: 0x1B9EE, offset: 0x1B9EE, size: 0x8, addend: 0x0, symName: __ZNSt3__117__compressed_pairImNS_9allocatorItEEEC1B8ue170006IiRNS1_IPtEEEEOT_OT0_, symObjAddr: 0x6ABC, symBinAddr: 0x1000082B8, symSize: 0x3C }
  - { offsetInCU: 0x1BA4C, offset: 0x1BA4C, size: 0x8, addend: 0x0, symName: __ZNSt3__15dequeItNS_9allocatorItEEE8__appendINS_16__deque_iteratorItPKtRS6_PKS7_lLl2048EEEEEvT_SC_PNS_9enable_ifIXsr31__has_forward_iterator_categoryISC_EE5valueEvE4typeE, symObjAddr: 0x6AF8, symBinAddr: 0x1000082F4, symSize: 0x78 }
  - { offsetInCU: 0x1BAA6, offset: 0x1BAA6, size: 0x8, addend: 0x0, symName: __ZNKSt3__15dequeItNS_9allocatorItEEE5beginB8ue170006Ev, symObjAddr: 0x6B70, symBinAddr: 0x10000836C, symSize: 0xA8 }
  - { offsetInCU: 0x1BADB, offset: 0x1BADB, size: 0x8, addend: 0x0, symName: __ZNKSt3__15dequeItNS_9allocatorItEEE3endB8ue170006Ev, symObjAddr: 0x6C18, symBinAddr: 0x100008414, symSize: 0xBC }
  - { offsetInCU: 0x1BB1F, offset: 0x1BB1F, size: 0x8, addend: 0x0, symName: __ZNKSt3__117__compressed_pairImNS_9allocatorItEEE6secondB8ue170006Ev, symObjAddr: 0x6CD4, symBinAddr: 0x1000084D0, symSize: 0x24 }
  - { offsetInCU: 0x1BB45, offset: 0x1BB45, size: 0x8, addend: 0x0, symName: __ZNKSt3__122__compressed_pair_elemINS_9allocatorItEELi1ELb1EE5__getB8ue170006Ev, symObjAddr: 0x6CF8, symBinAddr: 0x1000084F4, symSize: 0x14 }
  - { offsetInCU: 0x1BB6B, offset: 0x1BB6B, size: 0x8, addend: 0x0, symName: __ZNSt3__19allocatorIPtEC2B8ue170006ItEERKNS0_IT_EE, symObjAddr: 0x6D0C, symBinAddr: 0x100008508, symSize: 0x30 }
  - { offsetInCU: 0x1BBA9, offset: 0x1BBA9, size: 0x8, addend: 0x0, symName: __ZNSt3__114__split_bufferIPtNS_9allocatorIS1_EEEC2B8ue170006ERKS3_, symObjAddr: 0x6D3C, symBinAddr: 0x100008538, symSize: 0x4C }
  - { offsetInCU: 0x1BBE1, offset: 0x1BBE1, size: 0x8, addend: 0x0, symName: __ZNSt3__117__compressed_pairIPPtNS_9allocatorIS1_EEEC1B8ue170006IDnRKS4_EEOT_OT0_, symObjAddr: 0x6D88, symBinAddr: 0x100008584, symSize: 0x3C }
  - { offsetInCU: 0x1BC39, offset: 0x1BC39, size: 0x8, addend: 0x0, symName: __ZNSt3__117__compressed_pairIPPtNS_9allocatorIS1_EEEC2B8ue170006IDnRKS4_EEOT_OT0_, symObjAddr: 0x6DC4, symBinAddr: 0x1000085C0, symSize: 0x44 }
  - { offsetInCU: 0x1BC91, offset: 0x1BC91, size: 0x8, addend: 0x0, symName: __ZNSt3__122__compressed_pair_elemINS_9allocatorIPtEELi1ELb1EEC2B8ue170006IRKS3_vEEOT_, symObjAddr: 0x6E08, symBinAddr: 0x100008604, symSize: 0x18 }
  - { offsetInCU: 0x1BCD3, offset: 0x1BCD3, size: 0x8, addend: 0x0, symName: __ZNSt3__117__compressed_pairImNS_9allocatorItEEEC2B8ue170006IiRNS1_IPtEEEEOT_OT0_, symObjAddr: 0x6E20, symBinAddr: 0x10000861C, symSize: 0x44 }
  - { offsetInCU: 0x1BD2B, offset: 0x1BD2B, size: 0x8, addend: 0x0, symName: __ZNSt3__122__compressed_pair_elemINS_9allocatorItEELi1ELb1EEC2B8ue170006IRNS1_IPtEEvEEOT_, symObjAddr: 0x6E64, symBinAddr: 0x100008660, symSize: 0x34 }
  - { offsetInCU: 0x1BD6D, offset: 0x1BD6D, size: 0x8, addend: 0x0, symName: __ZNSt3__19allocatorItEC2B8ue170006IPtEERKNS0_IT_EE, symObjAddr: 0x6E98, symBinAddr: 0x100008694, symSize: 0x30 }
  - { offsetInCU: 0x1BDAB, offset: 0x1BDAB, size: 0x8, addend: 0x0, symName: __ZNSt3__15dequeItNS_9allocatorItEEE18__append_with_sizeB8ue170006INS_16__deque_iteratorItPKtRS6_PKS7_lLl2048EEEEEvT_m, symObjAddr: 0x6EC8, symBinAddr: 0x1000086C4, symSize: 0x21C }
  - { offsetInCU: 0x1BE7D, offset: 0x1BE7D, size: 0x8, addend: 0x0, symName: __ZNKSt3__15dequeItNS_9allocatorItEEE12__back_spareB8ue170006Ev, symObjAddr: 0x7130, symBinAddr: 0x10000892C, symSize: 0x54 }
  - { offsetInCU: 0x1BEA3, offset: 0x1BEA3, size: 0x8, addend: 0x0, symName: __ZNSt3__15dequeItNS_9allocatorItEEE19__add_back_capacityEm, symObjAddr: 0x7184, symBinAddr: 0x100008980, symSize: 0x63C }
  - { offsetInCU: 0x1BFA8, offset: 0x1BFA8, size: 0x8, addend: 0x0, symName: __ZNKSt3__15dequeItNS_9allocatorItEEE24__annotate_increase_backB8ue170006Em, symObjAddr: 0x77C0, symBinAddr: 0x100008FBC, symSize: 0x7C }
  - { offsetInCU: 0x1BFDD, offset: 0x1BFDD, size: 0x8, addend: 0x0, symName: __ZNKSt3__116__deque_iteratorItPtRtPS1_lLl2048EEplB8ue170006El, symObjAddr: 0x783C, symBinAddr: 0x100009038, symSize: 0x40 }
  - { offsetInCU: 0x1C048, offset: 0x1C048, size: 0x8, addend: 0x0, symName: __ZNSt3__15dequeItNS_9allocatorItEEE13__deque_rangeC1B8ue170006ENS_16__deque_iteratorItPtRtPS6_lLl2048EEES9_, symObjAddr: 0x787C, symBinAddr: 0x100009078, symSize: 0x4C }
  - { offsetInCU: 0x1C090, offset: 0x1C090, size: 0x8, addend: 0x0, symName: __ZNKSt3__15dequeItNS_9allocatorItEEE13__deque_range5beginB8ue170006Ev, symObjAddr: 0x78C8, symBinAddr: 0x1000090C4, symSize: 0x24 }
  - { offsetInCU: 0x1C0B6, offset: 0x1C0B6, size: 0x8, addend: 0x0, symName: __ZNKSt3__15dequeItNS_9allocatorItEEE13__deque_range3endB8ue170006Ev, symObjAddr: 0x78EC, symBinAddr: 0x1000090E8, symSize: 0x50 }
  - { offsetInCU: 0x1C0DC, offset: 0x1C0DC, size: 0x8, addend: 0x0, symName: __ZNKSt3__15dequeItNS_9allocatorItEEE13__deque_rangedeB8ue170006Ev, symObjAddr: 0x7970, symBinAddr: 0x10000916C, symSize: 0x7C }
  - { offsetInCU: 0x1C119, offset: 0x1C119, size: 0x8, addend: 0x0, symName: __ZNSt3__15dequeItNS_9allocatorItEEE21_ConstructTransactionC1B8ue170006EPS3_RNS3_19__deque_block_rangeE, symObjAddr: 0x79EC, symBinAddr: 0x1000091E8, symSize: 0x3C }
  - { offsetInCU: 0x1C161, offset: 0x1C161, size: 0x8, addend: 0x0, symName: __ZNSt3__116allocator_traitsINS_9allocatorItEEE9constructB8ue170006ItJRKtEvEEvRS2_PT_DpOT0_, symObjAddr: 0x7A28, symBinAddr: 0x100009224, symSize: 0x34 }
  - { offsetInCU: 0x1C1B8, offset: 0x1C1B8, size: 0x8, addend: 0x0, symName: __ZNKSt3__116__deque_iteratorItPKtRS1_PKS2_lLl2048EEdeB8ue170006Ev, symObjAddr: 0x7A5C, symBinAddr: 0x100009258, symSize: 0x18 }
  - { offsetInCU: 0x1C1DE, offset: 0x1C1DE, size: 0x8, addend: 0x0, symName: __ZNSt3__116__deque_iteratorItPKtRS1_PKS2_lLl2048EEppB8ue170006Ev, symObjAddr: 0x7A74, symBinAddr: 0x100009270, symSize: 0x70 }
  - { offsetInCU: 0x1C204, offset: 0x1C204, size: 0x8, addend: 0x0, symName: __ZNSt3__15dequeItNS_9allocatorItEEE21_ConstructTransactionD1B8ue170006Ev, symObjAddr: 0x7AE4, symBinAddr: 0x1000092E0, symSize: 0x2C }
  - { offsetInCU: 0x1C22E, offset: 0x1C22E, size: 0x8, addend: 0x0, symName: __ZNSt3__15dequeItNS_9allocatorItEEE13__deque_rangeppB8ue170006Ev, symObjAddr: 0x7B10, symBinAddr: 0x10000930C, symSize: 0x64 }
  - { offsetInCU: 0x1C254, offset: 0x1C254, size: 0x8, addend: 0x0, symName: __ZNKSt3__15dequeItNS_9allocatorItEEE10__capacityB8ue170006Ev, symObjAddr: 0x7B74, symBinAddr: 0x100009370, symSize: 0x60 }
  - { offsetInCU: 0x1C27A, offset: 0x1C27A, size: 0x8, addend: 0x0, symName: __ZNSt3__15dequeItNS_9allocatorItEEE18__recommend_blocksB8ue170006Em, symObjAddr: 0x7BD4, symBinAddr: 0x1000093D0, symSize: 0x40 }
  - { offsetInCU: 0x1C29E, offset: 0x1C29E, size: 0x8, addend: 0x0, symName: __ZNKSt3__15dequeItNS_9allocatorItEEE13__front_spareB8ue170006Ev, symObjAddr: 0x7C14, symBinAddr: 0x100009410, symSize: 0x18 }
  - { offsetInCU: 0x1C2C4, offset: 0x1C2C4, size: 0x8, addend: 0x0, symName: __ZNSt3__114__split_bufferIPtNS_9allocatorIS1_EEE9push_backB8ue170006ERKS1_, symObjAddr: 0x7C2C, symBinAddr: 0x100009428, symSize: 0x260 }
  - { offsetInCU: 0x1C33D, offset: 0x1C33D, size: 0x8, addend: 0x0, symName: __ZNKSt3__114__split_bufferIPtNS_9allocatorIS1_EEE12__back_spareB8ue170006Ev, symObjAddr: 0x7E8C, symBinAddr: 0x100009688, symSize: 0x40 }
  - { offsetInCU: 0x1C363, offset: 0x1C363, size: 0x8, addend: 0x0, symName: __ZNSt3__114__split_bufferIPtNS_9allocatorIS1_EEE9push_backEOS1_, symObjAddr: 0x7ECC, symBinAddr: 0x1000096C8, symSize: 0x260 }
  - { offsetInCU: 0x1C3DC, offset: 0x1C3DC, size: 0x8, addend: 0x0, symName: __ZNSt3__116allocator_traitsINS_9allocatorItEEE8allocateB8ue170006ERS2_m, symObjAddr: 0x812C, symBinAddr: 0x100009928, symSize: 0x2C }
  - { offsetInCU: 0x1C40F, offset: 0x1C40F, size: 0x8, addend: 0x0, symName: __ZNSt3__114__split_bufferIPtNS_9allocatorIS1_EEE10push_frontEOS1_, symObjAddr: 0x8158, symBinAddr: 0x100009954, symSize: 0x25C }
  - { offsetInCU: 0x1C488, offset: 0x1C488, size: 0x8, addend: 0x0, symName: __ZNSt3__114__split_bufferIPtRNS_9allocatorIS1_EEEC1EmmS4_, symObjAddr: 0x83E0, symBinAddr: 0x100009BDC, symSize: 0x44 }
  - { offsetInCU: 0x1C4DE, offset: 0x1C4DE, size: 0x8, addend: 0x0, symName: __ZNSt3__114__split_bufferIPtRNS_9allocatorIS1_EEE9push_backEOS1_, symObjAddr: 0x8424, symBinAddr: 0x100009C20, symSize: 0x260 }
  - { offsetInCU: 0x1C557, offset: 0x1C557, size: 0x8, addend: 0x0, symName: __ZNSt3__114__split_bufferIPtRNS_9allocatorIS1_EEE4backB8ue170006Ev, symObjAddr: 0x8684, symBinAddr: 0x100009E80, symSize: 0x1C }
  - { offsetInCU: 0x1C57D, offset: 0x1C57D, size: 0x8, addend: 0x0, symName: __ZNSt3__114__split_bufferIPtRNS_9allocatorIS1_EEE5beginB8ue170006Ev, symObjAddr: 0x86A0, symBinAddr: 0x100009E9C, symSize: 0x18 }
  - { offsetInCU: 0x1C5A3, offset: 0x1C5A3, size: 0x8, addend: 0x0, symName: __ZNSt3__114__split_bufferIPtRNS_9allocatorIS1_EEE3endB8ue170006Ev, symObjAddr: 0x86B8, symBinAddr: 0x100009EB4, symSize: 0x18 }
  - { offsetInCU: 0x1C5C9, offset: 0x1C5C9, size: 0x8, addend: 0x0, symName: __ZNSt3__114__split_bufferIPtRNS_9allocatorIS1_EEE9push_backB8ue170006ERKS1_, symObjAddr: 0x86D0, symBinAddr: 0x100009ECC, symSize: 0x260 }
  - { offsetInCU: 0x1C642, offset: 0x1C642, size: 0x8, addend: 0x0, symName: __ZNSt3__114__split_bufferIPtRNS_9allocatorIS1_EEE10push_frontERKS1_, symObjAddr: 0x8930, symBinAddr: 0x10000A12C, symSize: 0x25C }
  - { offsetInCU: 0x1C6BB, offset: 0x1C6BB, size: 0x8, addend: 0x0, symName: __ZNSt3__114__split_bufferIPtNS_9allocatorIS1_EEE9__end_capB8ue170006Ev, symObjAddr: 0x8BC8, symBinAddr: 0x10000A3C4, symSize: 0x28 }
  - { offsetInCU: 0x1C6E1, offset: 0x1C6E1, size: 0x8, addend: 0x0, symName: __ZNSt3__114__split_bufferIPtRNS_9allocatorIS1_EEE9__end_capB8ue170006Ev, symObjAddr: 0x8BF0, symBinAddr: 0x10000A3EC, symSize: 0x28 }
  - { offsetInCU: 0x1C707, offset: 0x1C707, size: 0x8, addend: 0x0, symName: __ZNSt3__114__split_bufferIPtRNS_9allocatorIS1_EEED1Ev, symObjAddr: 0x8C18, symBinAddr: 0x10000A414, symSize: 0x2C }
  - { offsetInCU: 0x1C733, offset: 0x1C733, size: 0x8, addend: 0x0, symName: __ZNSt3__114__split_bufferIPtRNS_9allocatorIS1_EEE18__construct_at_endINS_13move_iteratorIPS1_EEEENS_9enable_ifIXsr31__has_forward_iterator_categoryIT_EE5valueEvE4typeESB_SB_, symObjAddr: 0x8C84, symBinAddr: 0x10000A480, symSize: 0x60 }
  - { offsetInCU: 0x1C780, offset: 0x1C780, size: 0x8, addend: 0x0, symName: __ZNSt3__113move_iteratorIPPtEC1B8ue170006ES2_, symObjAddr: 0x8CE4, symBinAddr: 0x10000A4E0, symSize: 0x34 }
  - { offsetInCU: 0x1C7B8, offset: 0x1C7B8, size: 0x8, addend: 0x0, symName: __ZNSt3__116allocator_traitsINS_9allocatorIPtEEE9constructB8ue170006IS2_JRKS2_EvEEvRS3_PT_DpOT0_, symObjAddr: 0x8D18, symBinAddr: 0x10000A514, symSize: 0x34 }
  - { offsetInCU: 0x1C837, offset: 0x1C837, size: 0x8, addend: 0x0, symName: __ZNKSt3__114__move_trivialclB8ue170006IPtS2_Li0EEENS_4pairIPT_PT0_EES5_S5_S7_, symObjAddr: 0x8EE8, symBinAddr: 0x10000A6E4, symSize: 0x48 }
  - { offsetInCU: 0x1C8A5, offset: 0x1C8A5, size: 0x8, addend: 0x0, symName: __ZNSt3__14pairIPPtS2_EC1B8ue170006IRS2_S2_LPv0EEEOT_OT0_, symObjAddr: 0x9110, symBinAddr: 0x10000A90C, symSize: 0x3C }
  - { offsetInCU: 0x1C903, offset: 0x1C903, size: 0x8, addend: 0x0, symName: __ZNSt3__14pairIPPtS2_EC2B8ue170006IRS2_S2_LPv0EEEOT_OT0_, symObjAddr: 0x914C, symBinAddr: 0x10000A948, symSize: 0x34 }
  - { offsetInCU: 0x1C961, offset: 0x1C961, size: 0x8, addend: 0x0, symName: __ZNSt3__118__unwrap_iter_implIPPtLb1EE8__unwrapB8ue170006ES2_, symObjAddr: 0x9180, symBinAddr: 0x10000A97C, symSize: 0x24 }
  - { offsetInCU: 0x1C984, offset: 0x1C984, size: 0x8, addend: 0x0, symName: __ZNSt3__14pairIPPtS2_EC1B8ue170006IS2_S2_LPv0EEEOT_OT0_, symObjAddr: 0x91A4, symBinAddr: 0x10000A9A0, symSize: 0x3C }
  - { offsetInCU: 0x1C9E2, offset: 0x1C9E2, size: 0x8, addend: 0x0, symName: __ZNSt3__14pairIPPtS2_EC2B8ue170006IS2_S2_LPv0EEEOT_OT0_, symObjAddr: 0x91E0, symBinAddr: 0x10000A9DC, symSize: 0x34 }
  - { offsetInCU: 0x1CA40, offset: 0x1CA40, size: 0x8, addend: 0x0, symName: __ZNSt3__118__unwrap_iter_implIPPtLb1EE8__rewrapB8ue170006ES2_S2_, symObjAddr: 0x9214, symBinAddr: 0x10000AA10, symSize: 0x50 }
  - { offsetInCU: 0x1CA71, offset: 0x1CA71, size: 0x8, addend: 0x0, symName: __ZNSt3__114__split_bufferIPtRNS_9allocatorIS1_EEE28__construct_at_end_with_sizeINS_13move_iteratorIPS1_EEEEvT_m, symObjAddr: 0x9264, symBinAddr: 0x10000AA60, symSize: 0xDC }
  - { offsetInCU: 0x1CAD9, offset: 0x1CAD9, size: 0x8, addend: 0x0, symName: __ZNSt3__114__split_bufferIPtRNS_9allocatorIS1_EEE21_ConstructTransactionC1B8ue170006EPPS1_m, symObjAddr: 0x937C, symBinAddr: 0x10000AB78, symSize: 0x3C }
  - { offsetInCU: 0x1CB1F, offset: 0x1CB1F, size: 0x8, addend: 0x0, symName: __ZNSt3__116allocator_traitsINS_9allocatorIPtEEE9constructB8ue170006IS2_JS2_EvEEvRS3_PT_DpOT0_, symObjAddr: 0x93B8, symBinAddr: 0x10000ABB4, symSize: 0x34 }
  - { offsetInCU: 0x1CB76, offset: 0x1CB76, size: 0x8, addend: 0x0, symName: __ZNSt3__114__split_bufferIPtRNS_9allocatorIS1_EEE7__allocB8ue170006Ev, symObjAddr: 0x93EC, symBinAddr: 0x10000ABE8, symSize: 0x28 }
  - { offsetInCU: 0x1CB9C, offset: 0x1CB9C, size: 0x8, addend: 0x0, symName: __ZNKSt3__113move_iteratorIPPtEdeB8ue170006Ev, symObjAddr: 0x9414, symBinAddr: 0x10000AC10, symSize: 0x18 }
  - { offsetInCU: 0x1CBC2, offset: 0x1CBC2, size: 0x8, addend: 0x0, symName: __ZNSt3__113move_iteratorIPPtEppB8ue170006Ev, symObjAddr: 0x942C, symBinAddr: 0x10000AC28, symSize: 0x20 }
  - { offsetInCU: 0x1CBE8, offset: 0x1CBE8, size: 0x8, addend: 0x0, symName: __ZNSt3__114__split_bufferIPtRNS_9allocatorIS1_EEE21_ConstructTransactionD1B8ue170006Ev, symObjAddr: 0x944C, symBinAddr: 0x10000AC48, symSize: 0x2C }
  - { offsetInCU: 0x1CC12, offset: 0x1CC12, size: 0x8, addend: 0x0, symName: __ZNSt3__114__split_bufferIPtRNS_9allocatorIS1_EEE21_ConstructTransactionC2B8ue170006EPPS1_m, symObjAddr: 0x9478, symBinAddr: 0x10000AC74, symSize: 0x44 }
  - { offsetInCU: 0x1CC58, offset: 0x1CC58, size: 0x8, addend: 0x0, symName: __ZNSt3__19allocatorIPtE9constructB8ue170006IS1_JS1_EEEvPT_DpOT0_, symObjAddr: 0x94BC, symBinAddr: 0x10000ACB8, symSize: 0x28 }
  - { offsetInCU: 0x1CCAE, offset: 0x1CCAE, size: 0x8, addend: 0x0, symName: __ZNSt3__117__compressed_pairIPPtRNS_9allocatorIS1_EEE6secondB8ue170006Ev, symObjAddr: 0x94E4, symBinAddr: 0x10000ACE0, symSize: 0x28 }
  - { offsetInCU: 0x1CCD4, offset: 0x1CCD4, size: 0x8, addend: 0x0, symName: __ZNSt3__122__compressed_pair_elemIRNS_9allocatorIPtEELi1ELb0EE5__getB8ue170006Ev, symObjAddr: 0x950C, symBinAddr: 0x10000AD08, symSize: 0x18 }
  - { offsetInCU: 0x1CCFA, offset: 0x1CCFA, size: 0x8, addend: 0x0, symName: __ZNSt3__114__split_bufferIPtRNS_9allocatorIS1_EEE21_ConstructTransactionD2B8ue170006Ev, symObjAddr: 0x9524, symBinAddr: 0x10000AD20, symSize: 0x20 }
  - { offsetInCU: 0x1CD24, offset: 0x1CD24, size: 0x8, addend: 0x0, symName: __ZNKSt3__113move_iteratorIPPtE4baseB8ue170006Ev, symObjAddr: 0x95BC, symBinAddr: 0x10000ADB8, symSize: 0x18 }
  - { offsetInCU: 0x1CD4A, offset: 0x1CD4A, size: 0x8, addend: 0x0, symName: __ZNSt3__113move_iteratorIPPtEC2B8ue170006ES2_, symObjAddr: 0x95D4, symBinAddr: 0x10000ADD0, symSize: 0x20 }
  - { offsetInCU: 0x1CD82, offset: 0x1CD82, size: 0x8, addend: 0x0, symName: __ZNSt3__19allocatorIPtE9constructB8ue170006IS1_JRKS1_EEEvPT_DpOT0_, symObjAddr: 0x95F4, symBinAddr: 0x10000ADF0, symSize: 0x28 }
  - { offsetInCU: 0x1CDD8, offset: 0x1CDD8, size: 0x8, addend: 0x0, symName: __ZNSt3__19allocatorItE8allocateB8ue170006Em, symObjAddr: 0x961C, symBinAddr: 0x10000AE18, symSize: 0x58 }
  - { offsetInCU: 0x1CE0C, offset: 0x1CE0C, size: 0x8, addend: 0x0, symName: __ZNSt3__116allocator_traitsINS_9allocatorItEEE8max_sizeB8ue170006IS2_vEEmRKS2_, symObjAddr: 0x9674, symBinAddr: 0x10000AE70, symSize: 0x24 }
  - { offsetInCU: 0x1CE3A, offset: 0x1CE3A, size: 0x8, addend: 0x0, symName: __ZNKSt3__19allocatorItE8max_sizeB8ue170006Ev, symObjAddr: 0x9698, symBinAddr: 0x10000AE94, symSize: 0x14 }
  - { offsetInCU: 0x1CE6B, offset: 0x1CE6B, size: 0x8, addend: 0x0, symName: __ZNKSt3__123__move_backward_trivialclB8ue170006IPtS2_Li0EEENS_4pairIPT_PT0_EES5_S5_S7_, symObjAddr: 0x9828, symBinAddr: 0x10000B024, symSize: 0x48 }
  - { offsetInCU: 0x1CED3, offset: 0x1CED3, size: 0x8, addend: 0x0, symName: __ZNSt3__14pairIPPtS2_EC1B8ue170006IRS2_S5_LPv0EEEOT_OT0_, symObjAddr: 0x9938, symBinAddr: 0x10000B134, symSize: 0x3C }
  - { offsetInCU: 0x1CF31, offset: 0x1CF31, size: 0x8, addend: 0x0, symName: __ZNSt3__14pairIPPtS2_EC2B8ue170006IRS2_S5_LPv0EEEOT_OT0_, symObjAddr: 0x9974, symBinAddr: 0x10000B170, symSize: 0x34 }
  - { offsetInCU: 0x1CF8F, offset: 0x1CF8F, size: 0x8, addend: 0x0, symName: __ZNSt3__114__split_bufferIPtRNS_9allocatorIS1_EEEC2EmmS4_, symObjAddr: 0x99FC, symBinAddr: 0x10000B1F8, symSize: 0xD4 }
  - { offsetInCU: 0x1D003, offset: 0x1D003, size: 0x8, addend: 0x0, symName: __ZNSt3__117__compressed_pairIPPtRNS_9allocatorIS1_EEEC1B8ue170006IDnS5_EEOT_OT0_, symObjAddr: 0x9AD0, symBinAddr: 0x10000B2CC, symSize: 0x3C }
  - { offsetInCU: 0x1D05B, offset: 0x1D05B, size: 0x8, addend: 0x0, symName: __ZNSt3__117__compressed_pairIPPtRNS_9allocatorIS1_EEEC2B8ue170006IDnS5_EEOT_OT0_, symObjAddr: 0x9B4C, symBinAddr: 0x10000B348, symSize: 0x48 }
  - { offsetInCU: 0x1D0B3, offset: 0x1D0B3, size: 0x8, addend: 0x0, symName: __ZNSt3__122__compressed_pair_elemIRNS_9allocatorIPtEELi1ELb0EEC2B8ue170006IS4_vEEOT_, symObjAddr: 0x9B94, symBinAddr: 0x10000B390, symSize: 0x20 }
  - { offsetInCU: 0x1D0F5, offset: 0x1D0F5, size: 0x8, addend: 0x0, symName: __ZNSt3__19allocatorIPtE8allocateB8ue170006Em, symObjAddr: 0x9BB4, symBinAddr: 0x10000B3B0, symSize: 0x58 }
  - { offsetInCU: 0x1D134, offset: 0x1D134, size: 0x8, addend: 0x0, symName: __ZNSt3__116allocator_traitsINS_9allocatorIPtEEE8max_sizeB8ue170006IS3_vEEmRKS3_, symObjAddr: 0x9C0C, symBinAddr: 0x10000B408, symSize: 0x24 }
  - { offsetInCU: 0x1D162, offset: 0x1D162, size: 0x8, addend: 0x0, symName: __ZNKSt3__19allocatorIPtE8max_sizeB8ue170006Ev, symObjAddr: 0x9C30, symBinAddr: 0x10000B42C, symSize: 0x14 }
  - { offsetInCU: 0x1D188, offset: 0x1D188, size: 0x8, addend: 0x0, symName: __ZNSt3__117__compressed_pairIPPtNS_9allocatorIS1_EEE5firstB8ue170006Ev, symObjAddr: 0x9C44, symBinAddr: 0x10000B440, symSize: 0x24 }
  - { offsetInCU: 0x1D1AE, offset: 0x1D1AE, size: 0x8, addend: 0x0, symName: __ZNSt3__122__compressed_pair_elemIPPtLi0ELb0EE5__getB8ue170006Ev, symObjAddr: 0x9C68, symBinAddr: 0x10000B464, symSize: 0x14 }
  - { offsetInCU: 0x1D1D4, offset: 0x1D1D4, size: 0x8, addend: 0x0, symName: __ZNSt3__117__compressed_pairIPPtRNS_9allocatorIS1_EEE5firstB8ue170006Ev, symObjAddr: 0x9C7C, symBinAddr: 0x10000B478, symSize: 0x24 }
  - { offsetInCU: 0x1D1FA, offset: 0x1D1FA, size: 0x8, addend: 0x0, symName: __ZNSt3__114__split_bufferIPtRNS_9allocatorIS1_EEED2Ev, symObjAddr: 0x9CA0, symBinAddr: 0x10000B49C, symSize: 0x8C }
  - { offsetInCU: 0x1D226, offset: 0x1D226, size: 0x8, addend: 0x0, symName: __ZNSt3__114__split_bufferIPtRNS_9allocatorIS1_EEE5clearB8ue170006Ev, symObjAddr: 0x9D2C, symBinAddr: 0x10000B528, symSize: 0x28 }
  - { offsetInCU: 0x1D24C, offset: 0x1D24C, size: 0x8, addend: 0x0, symName: __ZNKSt3__114__split_bufferIPtRNS_9allocatorIS1_EEE8capacityB8ue170006Ev, symObjAddr: 0x9D54, symBinAddr: 0x10000B550, symSize: 0x40 }
  - { offsetInCU: 0x1D272, offset: 0x1D272, size: 0x8, addend: 0x0, symName: __ZNSt3__114__split_bufferIPtRNS_9allocatorIS1_EEE17__destruct_at_endB8ue170006EPS1_, symObjAddr: 0x9D94, symBinAddr: 0x10000B590, symSize: 0x2C }
  - { offsetInCU: 0x1D2A6, offset: 0x1D2A6, size: 0x8, addend: 0x0, symName: __ZNSt3__114__split_bufferIPtRNS_9allocatorIS1_EEE17__destruct_at_endB8ue170006EPS1_NS_17integral_constantIbLb0EEE, symObjAddr: 0x9DC0, symBinAddr: 0x10000B5BC, symSize: 0x80 }
  - { offsetInCU: 0x1D2E7, offset: 0x1D2E7, size: 0x8, addend: 0x0, symName: __ZNKSt3__114__split_bufferIPtRNS_9allocatorIS1_EEE9__end_capB8ue170006Ev, symObjAddr: 0x9E40, symBinAddr: 0x10000B63C, symSize: 0x28 }
  - { offsetInCU: 0x1D30D, offset: 0x1D30D, size: 0x8, addend: 0x0, symName: __ZNKSt3__117__compressed_pairIPPtRNS_9allocatorIS1_EEE5firstB8ue170006Ev, symObjAddr: 0x9E68, symBinAddr: 0x10000B664, symSize: 0x24 }
  - { offsetInCU: 0x1D333, offset: 0x1D333, size: 0x8, addend: 0x0, symName: __ZNSt3__116__deque_iteratorItPtRtPS1_lLl2048EEpLB8ue170006El, symObjAddr: 0x9E8C, symBinAddr: 0x10000B688, symSize: 0x110 }
  - { offsetInCU: 0x1D386, offset: 0x1D386, size: 0x8, addend: 0x0, symName: __ZNSt3__15dequeItNS_9allocatorItEEE13__deque_rangeC2B8ue170006ENS_16__deque_iteratorItPtRtPS6_lLl2048EEES9_, symObjAddr: 0x9F9C, symBinAddr: 0x10000B798, symSize: 0x34 }
  - { offsetInCU: 0x1D3CE, offset: 0x1D3CE, size: 0x8, addend: 0x0, symName: __ZNSt3__15dequeItNS_9allocatorItEEE19__deque_block_rangeC1B8ue170006EPtS5_, symObjAddr: 0xA000, symBinAddr: 0x10000B7FC, symSize: 0x3C }
  - { offsetInCU: 0x1D416, offset: 0x1D416, size: 0x8, addend: 0x0, symName: __ZNSt3__15dequeItNS_9allocatorItEEE19__deque_block_rangeC2B8ue170006EPtS5_, symObjAddr: 0xA03C, symBinAddr: 0x10000B838, symSize: 0x2C }
  - { offsetInCU: 0x1D45E, offset: 0x1D45E, size: 0x8, addend: 0x0, symName: __ZNSt3__15dequeItNS_9allocatorItEEE21_ConstructTransactionC2B8ue170006EPS3_RNS3_19__deque_block_rangeE, symObjAddr: 0xA068, symBinAddr: 0x10000B864, symSize: 0x48 }
  - { offsetInCU: 0x1D4A6, offset: 0x1D4A6, size: 0x8, addend: 0x0, symName: __ZNSt3__19allocatorItE9constructB8ue170006ItJRKtEEEvPT_DpOT0_, symObjAddr: 0xA0B0, symBinAddr: 0x10000B8AC, symSize: 0x28 }
  - { offsetInCU: 0x1D4FC, offset: 0x1D4FC, size: 0x8, addend: 0x0, symName: __ZNSt3__15dequeItNS_9allocatorItEEE21_ConstructTransactionD2B8ue170006Ev, symObjAddr: 0xA0D8, symBinAddr: 0x10000B8D4, symSize: 0x5C }
  - { offsetInCU: 0x1D526, offset: 0x1D526, size: 0x8, addend: 0x0, symName: __ZNSt3__116__deque_iteratorItPKtRS1_PKS2_lLl2048EEC1B8ue170006ES5_S2_, symObjAddr: 0xA278, symBinAddr: 0x10000BA74, symSize: 0x3C }
  - { offsetInCU: 0x1D56E, offset: 0x1D56E, size: 0x8, addend: 0x0, symName: __ZNSt3__116__deque_iteratorItPKtRS1_PKS2_lLl2048EEC2B8ue170006ES5_S2_, symObjAddr: 0xA2B4, symBinAddr: 0x10000BAB0, symSize: 0x2C }
  - { offsetInCU: 0x1D5B6, offset: 0x1D5B6, size: 0x8, addend: 0x0, symName: __ZNSt3__15dequeItNS_9allocatorItEEE9push_backERKt, symObjAddr: 0xA2E0, symBinAddr: 0x10000BADC, symSize: 0xAC }
  - { offsetInCU: 0x1D5FC, offset: 0x1D5FC, size: 0x8, addend: 0x0, symName: __ZNSt3__15dequeItNS_9allocatorItEEE19__add_back_capacityEv, symObjAddr: 0xA38C, symBinAddr: 0x10000BB88, symSize: 0x34C }
  - { offsetInCU: 0x1D6BA, offset: 0x1D6BA, size: 0x8, addend: 0x0, symName: __ZNSt3__122__allocator_destructorINS_9allocatorItEEEC1B8ue170006ERS2_m, symObjAddr: 0xA6D8, symBinAddr: 0x10000BED4, symSize: 0x3C }
  - { offsetInCU: 0x1D790, offset: 0x1D790, size: 0x8, addend: 0x0, symName: __ZNSt3__110unique_ptrIPtNS_22__allocator_destructorINS_9allocatorItEEEEEC1B8ue170006ILb1EvEES1_NS_16__dependent_typeINS_27__unique_ptr_deleter_sfinaeIS5_EEXT_EE20__good_rval_ref_typeE, symObjAddr: 0xA714, symBinAddr: 0x10000BF10, symSize: 0x3C }
  - { offsetInCU: 0x1D7E1, offset: 0x1D7E1, size: 0x8, addend: 0x0, symName: __ZNKSt3__110unique_ptrIPtNS_22__allocator_destructorINS_9allocatorItEEEEE3getB8ue170006Ev, symObjAddr: 0xA750, symBinAddr: 0x10000BF4C, symSize: 0x28 }
  - { offsetInCU: 0x1D807, offset: 0x1D807, size: 0x8, addend: 0x0, symName: __ZNSt3__110unique_ptrIPtNS_22__allocator_destructorINS_9allocatorItEEEEE7releaseB8ue170006Ev, symObjAddr: 0xA778, symBinAddr: 0x10000BF74, symSize: 0x44 }
  - { offsetInCU: 0x1D83C, offset: 0x1D83C, size: 0x8, addend: 0x0, symName: __ZNSt3__110unique_ptrIPtNS_22__allocator_destructorINS_9allocatorItEEEEED1B8ue170006Ev, symObjAddr: 0xA7BC, symBinAddr: 0x10000BFB8, symSize: 0x2C }
  - { offsetInCU: 0x1D866, offset: 0x1D866, size: 0x8, addend: 0x0, symName: __ZNSt3__122__allocator_destructorINS_9allocatorItEEEC2B8ue170006ERS2_m, symObjAddr: 0xA7E8, symBinAddr: 0x10000BFE4, symSize: 0x2C }
  - { offsetInCU: 0x1D8AC, offset: 0x1D8AC, size: 0x8, addend: 0x0, symName: __ZNSt3__110unique_ptrIPtNS_22__allocator_destructorINS_9allocatorItEEEEEC2B8ue170006ILb1EvEES1_NS_16__dependent_typeINS_27__unique_ptr_deleter_sfinaeIS5_EEXT_EE20__good_rval_ref_typeE, symObjAddr: 0xA814, symBinAddr: 0x10000C010, symSize: 0x48 }
  - { offsetInCU: 0x1D8FD, offset: 0x1D8FD, size: 0x8, addend: 0x0, symName: __ZNSt3__117__compressed_pairIPtNS_22__allocator_destructorINS_9allocatorItEEEEEC1B8ue170006IRS1_S5_EEOT_OT0_, symObjAddr: 0xA85C, symBinAddr: 0x10000C058, symSize: 0x3C }
  - { offsetInCU: 0x1D955, offset: 0x1D955, size: 0x8, addend: 0x0, symName: __ZNSt3__117__compressed_pairIPtNS_22__allocator_destructorINS_9allocatorItEEEEEC2B8ue170006IRS1_S5_EEOT_OT0_, symObjAddr: 0xA898, symBinAddr: 0x10000C094, symSize: 0x48 }
  - { offsetInCU: 0x1D9AD, offset: 0x1D9AD, size: 0x8, addend: 0x0, symName: __ZNSt3__122__compressed_pair_elemIPtLi0ELb0EEC2B8ue170006IRS1_vEEOT_, symObjAddr: 0xA8E0, symBinAddr: 0x10000C0DC, symSize: 0x24 }
  - { offsetInCU: 0x1D9EF, offset: 0x1D9EF, size: 0x8, addend: 0x0, symName: __ZNSt3__122__compressed_pair_elemINS_22__allocator_destructorINS_9allocatorItEEEELi1ELb0EEC2B8ue170006IS4_vEEOT_, symObjAddr: 0xA904, symBinAddr: 0x10000C100, symSize: 0x24 }
  - { offsetInCU: 0x1DA31, offset: 0x1DA31, size: 0x8, addend: 0x0, symName: __ZNKSt3__117__compressed_pairIPtNS_22__allocator_destructorINS_9allocatorItEEEEE5firstB8ue170006Ev, symObjAddr: 0xA928, symBinAddr: 0x10000C124, symSize: 0x24 }
  - { offsetInCU: 0x1DA57, offset: 0x1DA57, size: 0x8, addend: 0x0, symName: __ZNKSt3__122__compressed_pair_elemIPtLi0ELb0EE5__getB8ue170006Ev, symObjAddr: 0xA94C, symBinAddr: 0x10000C148, symSize: 0x14 }
  - { offsetInCU: 0x1DA7D, offset: 0x1DA7D, size: 0x8, addend: 0x0, symName: __ZNSt3__117__compressed_pairIPtNS_22__allocator_destructorINS_9allocatorItEEEEE5firstB8ue170006Ev, symObjAddr: 0xA960, symBinAddr: 0x10000C15C, symSize: 0x24 }
  - { offsetInCU: 0x1DAA3, offset: 0x1DAA3, size: 0x8, addend: 0x0, symName: __ZNSt3__122__compressed_pair_elemIPtLi0ELb0EE5__getB8ue170006Ev, symObjAddr: 0xA984, symBinAddr: 0x10000C180, symSize: 0x14 }
  - { offsetInCU: 0x1DAC9, offset: 0x1DAC9, size: 0x8, addend: 0x0, symName: __ZNSt3__110unique_ptrIPtNS_22__allocator_destructorINS_9allocatorItEEEEED2B8ue170006Ev, symObjAddr: 0xA998, symBinAddr: 0x10000C194, symSize: 0x30 }
  - { offsetInCU: 0x1DAF3, offset: 0x1DAF3, size: 0x8, addend: 0x0, symName: __ZNSt3__110unique_ptrIPtNS_22__allocator_destructorINS_9allocatorItEEEEE5resetB8ue170006ES1_, symObjAddr: 0xA9C8, symBinAddr: 0x10000C1C4, symSize: 0x78 }
  - { offsetInCU: 0x1DB37, offset: 0x1DB37, size: 0x8, addend: 0x0, symName: __ZNSt3__117__compressed_pairIPtNS_22__allocator_destructorINS_9allocatorItEEEEE6secondB8ue170006Ev, symObjAddr: 0xAA40, symBinAddr: 0x10000C23C, symSize: 0x28 }
  - { offsetInCU: 0x1DB5D, offset: 0x1DB5D, size: 0x8, addend: 0x0, symName: __ZNSt3__122__allocator_destructorINS_9allocatorItEEEclB8ue170006EPt, symObjAddr: 0xAA68, symBinAddr: 0x10000C264, symSize: 0x34 }
  - { offsetInCU: 0x1DB91, offset: 0x1DB91, size: 0x8, addend: 0x0, symName: __ZNSt3__122__compressed_pair_elemINS_22__allocator_destructorINS_9allocatorItEEEELi1ELb0EE5__getB8ue170006Ev, symObjAddr: 0xAA9C, symBinAddr: 0x10000C298, symSize: 0x14 }
  - { offsetInCU: 0x1DBB7, offset: 0x1DBB7, size: 0x8, addend: 0x0, symName: __ZNSt3__15dequeItNS_9allocatorItEEEaSERKS3_, symObjAddr: 0xAAB0, symBinAddr: 0x10000C2AC, symSize: 0x90 }
  - { offsetInCU: 0x1DBEE, offset: 0x1DBEE, size: 0x8, addend: 0x0, symName: __ZNSt3__15dequeItNS_9allocatorItEEE19__copy_assign_allocB8ue170006ERKS3_, symObjAddr: 0xAB40, symBinAddr: 0x10000C33C, symSize: 0x2C }
  - { offsetInCU: 0x1DC23, offset: 0x1DC23, size: 0x8, addend: 0x0, symName: __ZNSt3__15dequeItNS_9allocatorItEEE6assignINS_16__deque_iteratorItPKtRS6_PKS7_lLl2048EEEEEvT_SC_PNS_9enable_ifIXsr37__has_random_access_iterator_categoryISC_EE5valueEvE4typeE, symObjAddr: 0xAB6C, symBinAddr: 0x10000C368, symSize: 0x68 }
  - { offsetInCU: 0x1DC7D, offset: 0x1DC7D, size: 0x8, addend: 0x0, symName: __ZNSt3__15dequeItNS_9allocatorItEEE19__copy_assign_allocB8ue170006ERKS3_NS_17integral_constantIbLb0EEE, symObjAddr: 0xABD4, symBinAddr: 0x10000C3D0, symSize: 0x14 }
  - { offsetInCU: 0x1DCB9, offset: 0x1DCB9, size: 0x8, addend: 0x0, symName: __ZNSt3__15dequeItNS_9allocatorItEEE32__assign_with_size_random_accessB8ue170006INS_16__deque_iteratorItPKtRS6_PKS7_lLl2048EEEEEvT_l, symObjAddr: 0xABE8, symBinAddr: 0x10000C3E4, symSize: 0x158 }
  - { offsetInCU: 0x1DD26, offset: 0x1DD26, size: 0x8, addend: 0x0, symName: __ZNKSt3__116__deque_iteratorItPKtRS1_PKS2_lLl2048EEplB8ue170006El, symObjAddr: 0xAD40, symBinAddr: 0x10000C53C, symSize: 0x40 }
  - { offsetInCU: 0x1DD6A, offset: 0x1DD6A, size: 0x8, addend: 0x0, symName: __ZNSt3__15dequeItNS_9allocatorItEEE14__erase_to_endENS_16__deque_iteratorItPKtRS5_PKS6_lLl2048EEE, symObjAddr: 0xADF8, symBinAddr: 0x10000C5F4, symSize: 0x194 }
  - { offsetInCU: 0x1DE41, offset: 0x1DE41, size: 0x8, addend: 0x0, symName: __ZNSt3__116__deque_iteratorItPKtRS1_PKS2_lLl2048EEC1B8ue170006IPtRtPS8_EERKNS0_ItT_T0_T1_lLl2048EEEPNS_9enable_ifIXsr14is_convertibleISB_S2_EE5valueEvE4typeE, symObjAddr: 0xB014, symBinAddr: 0x10000C810, symSize: 0x3C }
  - { offsetInCU: 0x1DEA0, offset: 0x1DEA0, size: 0x8, addend: 0x0, symName: __ZNSt3__116__deque_iteratorItPKtRS1_PKS2_lLl2048EEpLB8ue170006El, symObjAddr: 0xB050, symBinAddr: 0x10000C84C, symSize: 0x110 }
  - { offsetInCU: 0x1DF1B, offset: 0x1DF1B, size: 0x8, addend: 0x0, symName: __ZNKSt3__111__copy_loopINS_17_ClassicAlgPolicyEEclB8ue170006INS_16__deque_iteratorItPKtRS5_PKS6_lLl2048EEENS4_ItPtRtPSB_lLl2048EEELi0EEENS_4pairIT_T0_EESG_SG_SH_, symObjAddr: 0xB3D8, symBinAddr: 0x10000CBD4, symSize: 0x88 }
  - { offsetInCU: 0x1DFA6, offset: 0x1DFA6, size: 0x8, addend: 0x0, symName: __ZNSt3__14pairINS_16__deque_iteratorItPKtRS2_PKS3_lLl2048EEES7_EC1B8ue170006IS7_S7_LPv0EEEOT_OT0_, symObjAddr: 0xB628, symBinAddr: 0x10000CE24, symSize: 0x3C }
  - { offsetInCU: 0x1E004, offset: 0x1E004, size: 0x8, addend: 0x0, symName: __ZNSt3__14pairINS_16__deque_iteratorItPKtRS2_PKS3_lLl2048EEES7_EC2B8ue170006IS7_S7_LPv0EEEOT_OT0_, symObjAddr: 0xB664, symBinAddr: 0x10000CE60, symSize: 0x34 }
  - { offsetInCU: 0x1E062, offset: 0x1E062, size: 0x8, addend: 0x0, symName: __ZNSt3__118__unwrap_iter_implINS_16__deque_iteratorItPKtRS2_PKS3_lLl2048EEELb0EE8__unwrapB8ue170006ES7_, symObjAddr: 0xB698, symBinAddr: 0x10000CE94, symSize: 0x24 }
  - { offsetInCU: 0x1E085, offset: 0x1E085, size: 0x8, addend: 0x0, symName: __ZNSt3__111__copy_loopINS_17_ClassicAlgPolicyEE12_CopySegmentINS_16__deque_iteratorItPKtRS5_PKS6_lLl2048EEENS4_ItPtRtPSB_lLl2048EEEEC1B8ue170006ERSE_, symObjAddr: 0xB830, symBinAddr: 0x10000D02C, symSize: 0x34 }
  - { offsetInCU: 0x1E0BD, offset: 0x1E0BD, size: 0x8, addend: 0x0, symName: __ZNSt3__127__segmented_iterator_traitsINS_16__deque_iteratorItPKtRS2_PKS3_lLl2048EEEE9__segmentB8ue170006ES7_, symObjAddr: 0xB89C, symBinAddr: 0x10000D098, symSize: 0x18 }
  - { offsetInCU: 0x1E0E1, offset: 0x1E0E1, size: 0x8, addend: 0x0, symName: __ZNSt3__111__copy_loopINS_17_ClassicAlgPolicyEE12_CopySegmentINS_16__deque_iteratorItPKtRS5_PKS6_lLl2048EEENS4_ItPtRtPSB_lLl2048EEEEclB8ue170006ES6_S6_, symObjAddr: 0xB8B4, symBinAddr: 0x10000D0B0, symSize: 0x68 }
  - { offsetInCU: 0x1E123, offset: 0x1E123, size: 0x8, addend: 0x0, symName: __ZNSt3__127__segmented_iterator_traitsINS_16__deque_iteratorItPKtRS2_PKS3_lLl2048EEEE7__localB8ue170006ES7_, symObjAddr: 0xB91C, symBinAddr: 0x10000D118, symSize: 0x18 }
  - { offsetInCU: 0x1E147, offset: 0x1E147, size: 0x8, addend: 0x0, symName: __ZNSt3__127__segmented_iterator_traitsINS_16__deque_iteratorItPKtRS2_PKS3_lLl2048EEEE5__endB8ue170006ES6_, symObjAddr: 0xB934, symBinAddr: 0x10000D130, symSize: 0x1C }
  - { offsetInCU: 0x1E16B, offset: 0x1E16B, size: 0x8, addend: 0x0, symName: __ZNSt3__127__segmented_iterator_traitsINS_16__deque_iteratorItPKtRS2_PKS3_lLl2048EEEE7__beginB8ue170006ES6_, symObjAddr: 0xB950, symBinAddr: 0x10000D14C, symSize: 0x18 }
  - { offsetInCU: 0x1E1AC, offset: 0x1E1AC, size: 0x8, addend: 0x0, symName: __ZNKSt3__111__copy_loopINS_17_ClassicAlgPolicyEEclB8ue170006IPKtNS_16__deque_iteratorItPtRtPS7_lLl2048EEELi0EEENS_4pairIT_T0_EESC_SC_SD_, symObjAddr: 0xBB40, symBinAddr: 0x10000D33C, symSize: 0x164 }
  - { offsetInCU: 0x1E28F, offset: 0x1E28F, size: 0x8, addend: 0x0, symName: __ZNSt3__14pairIPKtS2_EC1B8ue170006IS2_S2_LPv0EEEOT_OT0_, symObjAddr: 0xBD64, symBinAddr: 0x10000D560, symSize: 0x3C }
  - { offsetInCU: 0x1E2ED, offset: 0x1E2ED, size: 0x8, addend: 0x0, symName: __ZNSt3__14pairIPKtS2_EC2B8ue170006IS2_S2_LPv0EEEOT_OT0_, symObjAddr: 0xBDA0, symBinAddr: 0x10000D59C, symSize: 0x34 }
  - { offsetInCU: 0x1E34B, offset: 0x1E34B, size: 0x8, addend: 0x0, symName: __ZNSt3__118__unwrap_iter_implIPKtLb1EE8__unwrapB8ue170006ES2_, symObjAddr: 0xBDD4, symBinAddr: 0x10000D5D0, symSize: 0x24 }
  - { offsetInCU: 0x1E36E, offset: 0x1E36E, size: 0x8, addend: 0x0, symName: __ZNSt3__127__segmented_iterator_traitsINS_16__deque_iteratorItPtRtPS2_lLl2048EEEE7__localB8ue170006ES5_, symObjAddr: 0xBE0C, symBinAddr: 0x10000D608, symSize: 0x18 }
  - { offsetInCU: 0x1E392, offset: 0x1E392, size: 0x8, addend: 0x0, symName: __ZNSt3__127__segmented_iterator_traitsINS_16__deque_iteratorItPtRtPS2_lLl2048EEEE9__segmentB8ue170006ES5_, symObjAddr: 0xBE24, symBinAddr: 0x10000D620, symSize: 0x18 }
  - { offsetInCU: 0x1E3B6, offset: 0x1E3B6, size: 0x8, addend: 0x0, symName: __ZNSt3__127__segmented_iterator_traitsINS_16__deque_iteratorItPtRtPS2_lLl2048EEEE5__endB8ue170006ES4_, symObjAddr: 0xBE3C, symBinAddr: 0x10000D638, symSize: 0x1C }
  - { offsetInCU: 0x1E3DA, offset: 0x1E3DA, size: 0x8, addend: 0x0, symName: __ZNSt3__127__segmented_iterator_traitsINS_16__deque_iteratorItPtRtPS2_lLl2048EEEE9__composeB8ue170006ES4_S2_, symObjAddr: 0xBEC8, symBinAddr: 0x10000D6C4, symSize: 0x84 }
  - { offsetInCU: 0x1E40D, offset: 0x1E40D, size: 0x8, addend: 0x0, symName: __ZNSt3__127__segmented_iterator_traitsINS_16__deque_iteratorItPtRtPS2_lLl2048EEEE7__beginB8ue170006ES4_, symObjAddr: 0xBF4C, symBinAddr: 0x10000D748, symSize: 0x18 }
  - { offsetInCU: 0x1E43C, offset: 0x1E43C, size: 0x8, addend: 0x0, symName: __ZNKSt3__16__lessIvvEclB8ue170006IllEEbRKT_RKT0_, symObjAddr: 0xBFB8, symBinAddr: 0x10000D7B4, symSize: 0x34 }
  - { offsetInCU: 0x1E4B8, offset: 0x1E4B8, size: 0x8, addend: 0x0, symName: __ZNKSt3__114__copy_trivialclB8ue170006IKttLi0EEENS_4pairIPT_PT0_EES5_S5_S7_, symObjAddr: 0xC0E4, symBinAddr: 0x10000D8E0, symSize: 0x48 }
  - { offsetInCU: 0x1E520, offset: 0x1E520, size: 0x8, addend: 0x0, symName: __ZNSt3__14pairIPKtPtEC1B8ue170006IRS2_S3_LPv0EEEOT_OT0_, symObjAddr: 0xC2E0, symBinAddr: 0x10000DADC, symSize: 0x3C }
  - { offsetInCU: 0x1E57E, offset: 0x1E57E, size: 0x8, addend: 0x0, symName: __ZNSt3__14pairIPKtPtEC2B8ue170006IRS2_S3_LPv0EEEOT_OT0_, symObjAddr: 0xC31C, symBinAddr: 0x10000DB18, symSize: 0x34 }
  - { offsetInCU: 0x1E5DC, offset: 0x1E5DC, size: 0x8, addend: 0x0, symName: __ZNSt3__118__unwrap_iter_implIPtLb1EE8__unwrapB8ue170006ES1_, symObjAddr: 0xC350, symBinAddr: 0x10000DB4C, symSize: 0x24 }
  - { offsetInCU: 0x1E5FF, offset: 0x1E5FF, size: 0x8, addend: 0x0, symName: __ZNSt3__14pairIPKtPtEC1B8ue170006IS2_S3_LPv0EEEOT_OT0_, symObjAddr: 0xC374, symBinAddr: 0x10000DB70, symSize: 0x3C }
  - { offsetInCU: 0x1E65D, offset: 0x1E65D, size: 0x8, addend: 0x0, symName: __ZNSt3__14pairIPKtPtEC2B8ue170006IS2_S3_LPv0EEEOT_OT0_, symObjAddr: 0xC3B0, symBinAddr: 0x10000DBAC, symSize: 0x34 }
  - { offsetInCU: 0x1E6BB, offset: 0x1E6BB, size: 0x8, addend: 0x0, symName: __ZNSt3__118__unwrap_iter_implIPtLb1EE8__rewrapB8ue170006ES1_S1_, symObjAddr: 0xC3E4, symBinAddr: 0x10000DBE0, symSize: 0x50 }
  - { offsetInCU: 0x1E6F2, offset: 0x1E6F2, size: 0x8, addend: 0x0, symName: __ZNSt3__14pairIPKtNS_16__deque_iteratorItPtRtPS4_lLl2048EEEEC1B8ue170006IS2_S7_LPv0EEEOT_OT0_, symObjAddr: 0xC434, symBinAddr: 0x10000DC30, symSize: 0x3C }
  - { offsetInCU: 0x1E750, offset: 0x1E750, size: 0x8, addend: 0x0, symName: __ZNSt3__14pairIPKtNS_16__deque_iteratorItPtRtPS4_lLl2048EEEEC2B8ue170006IS2_S7_LPv0EEEOT_OT0_, symObjAddr: 0xC470, symBinAddr: 0x10000DC6C, symSize: 0x34 }
  - { offsetInCU: 0x1E7AE, offset: 0x1E7AE, size: 0x8, addend: 0x0, symName: __ZNSt3__118__unwrap_iter_implIPKtLb1EE8__rewrapB8ue170006ES2_S2_, symObjAddr: 0xC4E0, symBinAddr: 0x10000DCDC, symSize: 0x50 }
  - { offsetInCU: 0x1E7DF, offset: 0x1E7DF, size: 0x8, addend: 0x0, symName: __ZNSt3__111__copy_loopINS_17_ClassicAlgPolicyEE12_CopySegmentINS_16__deque_iteratorItPKtRS5_PKS6_lLl2048EEENS4_ItPtRtPSB_lLl2048EEEEC2B8ue170006ERSE_, symObjAddr: 0xC530, symBinAddr: 0x10000DD2C, symSize: 0x20 }
  - { offsetInCU: 0x1E817, offset: 0x1E817, size: 0x8, addend: 0x0, symName: __ZNSt3__14pairINS_16__deque_iteratorItPKtRS2_PKS3_lLl2048EEENS1_ItPtRtPS8_lLl2048EEEEC1B8ue170006IRS7_SB_LPv0EEEOT_OT0_, symObjAddr: 0xC550, symBinAddr: 0x10000DD4C, symSize: 0x3C }
  - { offsetInCU: 0x1E875, offset: 0x1E875, size: 0x8, addend: 0x0, symName: __ZNSt3__14pairINS_16__deque_iteratorItPKtRS2_PKS3_lLl2048EEENS1_ItPtRtPS8_lLl2048EEEEC2B8ue170006IRS7_SB_LPv0EEEOT_OT0_, symObjAddr: 0xC58C, symBinAddr: 0x10000DD88, symSize: 0x34 }
  - { offsetInCU: 0x1E8D3, offset: 0x1E8D3, size: 0x8, addend: 0x0, symName: __ZNSt3__118__unwrap_iter_implINS_16__deque_iteratorItPtRtPS2_lLl2048EEELb0EE8__unwrapB8ue170006ES5_, symObjAddr: 0xC5C0, symBinAddr: 0x10000DDBC, symSize: 0x24 }
  - { offsetInCU: 0x1E8F6, offset: 0x1E8F6, size: 0x8, addend: 0x0, symName: __ZNSt3__14pairINS_16__deque_iteratorItPKtRS2_PKS3_lLl2048EEENS1_ItPtRtPS8_lLl2048EEEEC1B8ue170006IS7_SB_LPv0EEEOT_OT0_, symObjAddr: 0xC5E4, symBinAddr: 0x10000DDE0, symSize: 0x3C }
  - { offsetInCU: 0x1E954, offset: 0x1E954, size: 0x8, addend: 0x0, symName: __ZNSt3__14pairINS_16__deque_iteratorItPKtRS2_PKS3_lLl2048EEENS1_ItPtRtPS8_lLl2048EEEEC2B8ue170006IS7_SB_LPv0EEEOT_OT0_, symObjAddr: 0xC620, symBinAddr: 0x10000DE1C, symSize: 0x34 }
  - { offsetInCU: 0x1E9B2, offset: 0x1E9B2, size: 0x8, addend: 0x0, symName: __ZNSt3__118__unwrap_iter_implINS_16__deque_iteratorItPKtRS2_PKS3_lLl2048EEELb0EE8__rewrapB8ue170006ES7_S7_, symObjAddr: 0xC6C8, symBinAddr: 0x10000DEC4, symSize: 0x2C }
  - { offsetInCU: 0x1E9E0, offset: 0x1E9E0, size: 0x8, addend: 0x0, symName: __ZNSt3__118__unwrap_iter_implINS_16__deque_iteratorItPtRtPS2_lLl2048EEELb0EE8__rewrapB8ue170006ES5_S5_, symObjAddr: 0xC6F4, symBinAddr: 0x10000DEF0, symSize: 0x2C }
  - { offsetInCU: 0x1EA0E, offset: 0x1EA0E, size: 0x8, addend: 0x0, symName: __ZNKSt3__15dequeItNS_9allocatorItEEE22__annotate_shrink_backB8ue170006Emm, symObjAddr: 0xC720, symBinAddr: 0x10000DF1C, symSize: 0x60 }
  - { offsetInCU: 0x1EA52, offset: 0x1EA52, size: 0x8, addend: 0x0, symName: __ZNSt3__15dequeItNS_9allocatorItEEE25__maybe_remove_back_spareB8ue170006Eb, symObjAddr: 0xC780, symBinAddr: 0x10000DF7C, symSize: 0xE8 }
  - { offsetInCU: 0x1EA87, offset: 0x1EA87, size: 0x8, addend: 0x0, symName: __ZNKSt3__15dequeItNS_9allocatorItEEE19__back_spare_blocksB8ue170006Ev, symObjAddr: 0xC868, symBinAddr: 0x10000E064, symSize: 0x2C }
  - { offsetInCU: 0x1EAAD, offset: 0x1EAAD, size: 0x8, addend: 0x0, symName: __ZNSt3__114__split_bufferIPtNS_9allocatorIS1_EEE4backB8ue170006Ev, symObjAddr: 0xC894, symBinAddr: 0x10000E090, symSize: 0x1C }
  - { offsetInCU: 0x1EAD3, offset: 0x1EAD3, size: 0x8, addend: 0x0, symName: __ZNSt3__114__split_bufferIPtNS_9allocatorIS1_EEE8pop_backB8ue170006Ev, symObjAddr: 0xC8B0, symBinAddr: 0x10000E0AC, symSize: 0x2C }
  - { offsetInCU: 0x1EAF9, offset: 0x1EAF9, size: 0x8, addend: 0x0, symName: __ZNSt3__116__deque_iteratorItPKtRS1_PKS2_lLl2048EEC2B8ue170006IPtRtPS8_EERKNS0_ItT_T0_T1_lLl2048EEEPNS_9enable_ifIXsr14is_convertibleISB_S2_EE5valueEvE4typeE, symObjAddr: 0xC8DC, symBinAddr: 0x10000E0D8, symSize: 0x34 }
  - { offsetInCU: 0x1EB58, offset: 0x1EB58, size: 0x8, addend: 0x0, symName: __ZNSt3__15dequeItNS_9allocatorItEEE4backEv, symObjAddr: 0xC910, symBinAddr: 0x10000E10C, symSize: 0x68 }
  - { offsetInCU: 0x1EB8F, offset: 0x1EB8F, size: 0x8, addend: 0x0, symName: __ZNSt3__19allocatorItEC1B8ue170006Ev, symObjAddr: 0xCA10, symBinAddr: 0x10000E20C, symSize: 0x2C }
  - { offsetInCU: 0x1EC10, offset: 0x1EC10, size: 0x8, addend: 0x0, symName: __ZNSt3__118__allocation_guardINS_9allocatorINS_20__shared_ptr_emplaceItNS1_ItEEEEEEEC1B8ue170006IS3_EET_m, symObjAddr: 0xCA3C, symBinAddr: 0x10000E238, symSize: 0x34 }
  - { offsetInCU: 0x1EC5F, offset: 0x1EC5F, size: 0x8, addend: 0x0, symName: __ZNKSt3__118__allocation_guardINS_9allocatorINS_20__shared_ptr_emplaceItNS1_ItEEEEEEE5__getB8ue170006Ev, symObjAddr: 0xCA70, symBinAddr: 0x10000E26C, symSize: 0x18 }
  - { offsetInCU: 0x1EC85, offset: 0x1EC85, size: 0x8, addend: 0x0, symName: __ZNSt3__120__shared_ptr_emplaceItNS_9allocatorItEEEC1B8ue170006IJRtEEES2_DpOT_, symObjAddr: 0xCA88, symBinAddr: 0x10000E284, symSize: 0x34 }
  - { offsetInCU: 0x1ECD8, offset: 0x1ECD8, size: 0x8, addend: 0x0, symName: __ZNSt3__118__allocation_guardINS_9allocatorINS_20__shared_ptr_emplaceItNS1_ItEEEEEEE13__release_ptrB8ue170006Ev, symObjAddr: 0xCABC, symBinAddr: 0x10000E2B8, symSize: 0x24 }
  - { offsetInCU: 0x1ED0C, offset: 0x1ED0C, size: 0x8, addend: 0x0, symName: __ZNSt3__110shared_ptrItE27__create_with_control_blockB8ue170006ItNS_20__shared_ptr_emplaceItNS_9allocatorItEEEEEES1_PT_PT0_, symObjAddr: 0xCAE0, symBinAddr: 0x10000E2DC, symSize: 0xA4 }
  - { offsetInCU: 0x1ED61, offset: 0x1ED61, size: 0x8, addend: 0x0, symName: __ZNSt3__120__shared_ptr_emplaceItNS_9allocatorItEEE10__get_elemB8ue170006Ev, symObjAddr: 0xCB84, symBinAddr: 0x10000E380, symSize: 0x28 }
  - { offsetInCU: 0x1ED87, offset: 0x1ED87, size: 0x8, addend: 0x0, symName: __ZNSt3__118__allocation_guardINS_9allocatorINS_20__shared_ptr_emplaceItNS1_ItEEEEEEED1B8ue170006Ev, symObjAddr: 0xCBAC, symBinAddr: 0x10000E3A8, symSize: 0x2C }
  - { offsetInCU: 0x1EDB1, offset: 0x1EDB1, size: 0x8, addend: 0x0, symName: __ZNSt3__118__allocation_guardINS_9allocatorINS_20__shared_ptr_emplaceItNS1_ItEEEEEEEC2B8ue170006IS3_EET_m, symObjAddr: 0xCBD8, symBinAddr: 0x10000E3D4, symSize: 0x50 }
  - { offsetInCU: 0x1EE00, offset: 0x1EE00, size: 0x8, addend: 0x0, symName: __ZNSt3__19allocatorINS_20__shared_ptr_emplaceItNS0_ItEEEEEC1B8ue170006ItEERKNS0_IT_EE, symObjAddr: 0xCC28, symBinAddr: 0x10000E424, symSize: 0x34 }
  - { offsetInCU: 0x1EE3E, offset: 0x1EE3E, size: 0x8, addend: 0x0, symName: __ZNSt3__116allocator_traitsINS_9allocatorINS_20__shared_ptr_emplaceItNS1_ItEEEEEEE8allocateB8ue170006ERS5_m, symObjAddr: 0xCC5C, symBinAddr: 0x10000E458, symSize: 0x2C }
  - { offsetInCU: 0x1EE71, offset: 0x1EE71, size: 0x8, addend: 0x0, symName: __ZNSt3__19allocatorINS_20__shared_ptr_emplaceItNS0_ItEEEEEC2B8ue170006ItEERKNS0_IT_EE, symObjAddr: 0xCC88, symBinAddr: 0x10000E484, symSize: 0x30 }
  - { offsetInCU: 0x1EEAF, offset: 0x1EEAF, size: 0x8, addend: 0x0, symName: __ZNSt3__116__non_trivial_ifILb1ENS_9allocatorINS_20__shared_ptr_emplaceItNS1_ItEEEEEEEC2B8ue170006Ev, symObjAddr: 0xCCB8, symBinAddr: 0x10000E4B4, symSize: 0x14 }
  - { offsetInCU: 0x1EED9, offset: 0x1EED9, size: 0x8, addend: 0x0, symName: __ZNSt3__19allocatorINS_20__shared_ptr_emplaceItNS0_ItEEEEE8allocateB8ue170006Em, symObjAddr: 0xCCCC, symBinAddr: 0x10000E4C8, symSize: 0x58 }
  - { offsetInCU: 0x1EF18, offset: 0x1EF18, size: 0x8, addend: 0x0, symName: __ZNSt3__116allocator_traitsINS_9allocatorINS_20__shared_ptr_emplaceItNS1_ItEEEEEEE8max_sizeB8ue170006IS5_vEEmRKS5_, symObjAddr: 0xCD24, symBinAddr: 0x10000E520, symSize: 0x24 }
  - { offsetInCU: 0x1EF46, offset: 0x1EF46, size: 0x8, addend: 0x0, symName: __ZNKSt3__19allocatorINS_20__shared_ptr_emplaceItNS0_ItEEEEE8max_sizeB8ue170006Ev, symObjAddr: 0xCD48, symBinAddr: 0x10000E544, symSize: 0x14 }
  - { offsetInCU: 0x1EF6C, offset: 0x1EF6C, size: 0x8, addend: 0x0, symName: __ZNSt3__120__shared_ptr_emplaceItNS_9allocatorItEEEC2B8ue170006IJRtEEES2_DpOT_, symObjAddr: 0xCD5C, symBinAddr: 0x10000E558, symSize: 0x9C }
  - { offsetInCU: 0x1EFBF, offset: 0x1EFBF, size: 0x8, addend: 0x0, symName: __ZNSt3__119__shared_weak_countC2B8ue170006El, symObjAddr: 0xCDF8, symBinAddr: 0x10000E5F4, symSize: 0x54 }
  - { offsetInCU: 0x1EFF7, offset: 0x1EFF7, size: 0x8, addend: 0x0, symName: __ZNSt3__120__shared_ptr_emplaceItNS_9allocatorItEEE8_StorageC1B8ue170006EOS2_, symObjAddr: 0xCE4C, symBinAddr: 0x10000E648, symSize: 0x34 }
  - { offsetInCU: 0x1F030, offset: 0x1F030, size: 0x8, addend: 0x0, symName: __ZNSt3__120__shared_ptr_emplaceItNS_9allocatorItEEED1Ev, symObjAddr: 0xCE80, symBinAddr: 0x10000E67C, symSize: 0x2C }
  - { offsetInCU: 0x1F05D, offset: 0x1F05D, size: 0x8, addend: 0x0, symName: __ZNSt3__120__shared_ptr_emplaceItNS_9allocatorItEEED0Ev, symObjAddr: 0xCEAC, symBinAddr: 0x10000E6A8, symSize: 0x30 }
  - { offsetInCU: 0x1F08A, offset: 0x1F08A, size: 0x8, addend: 0x0, symName: __ZNSt3__120__shared_ptr_emplaceItNS_9allocatorItEEE16__on_zero_sharedEv, symObjAddr: 0xCEDC, symBinAddr: 0x10000E6D8, symSize: 0x24 }
  - { offsetInCU: 0x1F0B0, offset: 0x1F0B0, size: 0x8, addend: 0x0, symName: __ZNSt3__120__shared_ptr_emplaceItNS_9allocatorItEEE21__on_zero_shared_weakEv, symObjAddr: 0xCF00, symBinAddr: 0x10000E6FC, symSize: 0x5C }
  - { offsetInCU: 0x1F0F1, offset: 0x1F0F1, size: 0x8, addend: 0x0, symName: __ZNSt3__114__shared_countC2B8ue170006El, symObjAddr: 0xCF5C, symBinAddr: 0x10000E758, symSize: 0x30 }
  - { offsetInCU: 0x1F129, offset: 0x1F129, size: 0x8, addend: 0x0, symName: __ZNSt3__120__shared_ptr_emplaceItNS_9allocatorItEEE8_StorageC2B8ue170006EOS2_, symObjAddr: 0xCF8C, symBinAddr: 0x10000E788, symSize: 0x30 }
  - { offsetInCU: 0x1F162, offset: 0x1F162, size: 0x8, addend: 0x0, symName: __ZNSt3__120__shared_ptr_emplaceItNS_9allocatorItEEE8_Storage11__get_allocB8ue170006Ev, symObjAddr: 0xCFBC, symBinAddr: 0x10000E7B8, symSize: 0x3C }
  - { offsetInCU: 0x1F1B5, offset: 0x1F1B5, size: 0x8, addend: 0x0, symName: __ZNSt3__117__compressed_pairINS_9allocatorItEEtE16__get_first_baseB8ue170006EPS3_, symObjAddr: 0xCFF8, symBinAddr: 0x10000E7F4, symSize: 0x14 }
  - { offsetInCU: 0x1F1D8, offset: 0x1F1D8, size: 0x8, addend: 0x0, symName: __ZNSt3__120__shared_ptr_emplaceItNS_9allocatorItEEED2Ev, symObjAddr: 0xD00C, symBinAddr: 0x10000E808, symSize: 0x48 }
  - { offsetInCU: 0x1F205, offset: 0x1F205, size: 0x8, addend: 0x0, symName: __ZNSt3__120__shared_ptr_emplaceItNS_9allocatorItEEE8_StorageD1B8ue170006Ev, symObjAddr: 0xD054, symBinAddr: 0x10000E850, symSize: 0x2C }
  - { offsetInCU: 0x1F22F, offset: 0x1F22F, size: 0x8, addend: 0x0, symName: __ZNSt3__120__shared_ptr_emplaceItNS_9allocatorItEEE8_StorageD2B8ue170006Ev, symObjAddr: 0xD080, symBinAddr: 0x10000E87C, symSize: 0x2C }
  - { offsetInCU: 0x1F259, offset: 0x1F259, size: 0x8, addend: 0x0, symName: __ZNSt3__120__shared_ptr_emplaceItNS_9allocatorItEEE11__get_allocB8ue170006Ev, symObjAddr: 0xD0AC, symBinAddr: 0x10000E8A8, symSize: 0x28 }
  - { offsetInCU: 0x1F27F, offset: 0x1F27F, size: 0x8, addend: 0x0, symName: __ZNSt3__116allocator_traitsINS_9allocatorINS_20__shared_ptr_emplaceItNS1_ItEEEEEEE10deallocateB8ue170006ERS5_PS4_m, symObjAddr: 0xD0D4, symBinAddr: 0x10000E8D0, symSize: 0x34 }
  - { offsetInCU: 0x1F2C1, offset: 0x1F2C1, size: 0x8, addend: 0x0, symName: __ZNSt3__114pointer_traitsIPNS_20__shared_ptr_emplaceItNS_9allocatorItEEEEE10pointer_toB8ue170006ERS4_, symObjAddr: 0xD108, symBinAddr: 0x10000E904, symSize: 0x14 }
  - { offsetInCU: 0x1F2E4, offset: 0x1F2E4, size: 0x8, addend: 0x0, symName: __ZNSt3__19allocatorINS_20__shared_ptr_emplaceItNS0_ItEEEEE10deallocateB8ue170006EPS3_m, symObjAddr: 0xD11C, symBinAddr: 0x10000E918, symSize: 0x40 }
  - { offsetInCU: 0x1F326, offset: 0x1F326, size: 0x8, addend: 0x0, symName: __ZNSt3__110shared_ptrItE18__enable_weak_thisB8ue170006Ez, symObjAddr: 0xD15C, symBinAddr: 0x10000E958, symSize: 0x10 }
  - { offsetInCU: 0x1F34D, offset: 0x1F34D, size: 0x8, addend: 0x0, symName: __ZNSt3__120__shared_ptr_emplaceItNS_9allocatorItEEE8_Storage10__get_elemB8ue170006Ev, symObjAddr: 0xD16C, symBinAddr: 0x10000E968, symSize: 0x3C }
  - { offsetInCU: 0x1F3A0, offset: 0x1F3A0, size: 0x8, addend: 0x0, symName: __ZNSt3__117__compressed_pairINS_9allocatorItEEtE17__get_second_baseB8ue170006EPS3_, symObjAddr: 0xD1A8, symBinAddr: 0x10000E9A4, symSize: 0x14 }
  - { offsetInCU: 0x1F3C3, offset: 0x1F3C3, size: 0x8, addend: 0x0, symName: __ZNSt3__118__allocation_guardINS_9allocatorINS_20__shared_ptr_emplaceItNS1_ItEEEEEEED2B8ue170006Ev, symObjAddr: 0xD1BC, symBinAddr: 0x10000E9B8, symSize: 0x2C }
  - { offsetInCU: 0x1F3ED, offset: 0x1F3ED, size: 0x8, addend: 0x0, symName: __ZNSt3__118__allocation_guardINS_9allocatorINS_20__shared_ptr_emplaceItNS1_ItEEEEEEE9__destroyB8ue170006Ev, symObjAddr: 0xD1E8, symBinAddr: 0x10000E9E4, symSize: 0x4C }
  - { offsetInCU: 0x1F413, offset: 0x1F413, size: 0x8, addend: 0x0, symName: __ZNSt3__110shared_ptrItED2B8ue170006Ev, symObjAddr: 0xD234, symBinAddr: 0x10000EA30, symSize: 0x54 }
  - { offsetInCU: 0x1F43D, offset: 0x1F43D, size: 0x8, addend: 0x0, symName: __ZNSt3__119__shared_weak_count16__release_sharedB8ue170006Ev, symObjAddr: 0xD288, symBinAddr: 0x10000EA84, symSize: 0x3C }
  - { offsetInCU: 0x1F463, offset: 0x1F463, size: 0x8, addend: 0x0, symName: __ZNSt3__114__shared_count16__release_sharedB8ue170006Ev, symObjAddr: 0xD2C4, symBinAddr: 0x10000EAC0, symSize: 0x7C }
  - { offsetInCU: 0x1F489, offset: 0x1F489, size: 0x8, addend: 0x0, symName: __ZNSt3__15dequeItNS_9allocatorItEEE8pop_backEv, symObjAddr: 0xD370, symBinAddr: 0x10000EB6C, symSize: 0xE0 }
  - { offsetInCU: 0x1F4ED, offset: 0x1F4ED, size: 0x8, addend: 0x0, symName: __ZNSt3__15dequeItNS_9allocatorItEEE9push_backEOt, symObjAddr: 0xD450, symBinAddr: 0x10000EC4C, symSize: 0xAC }
  - { offsetInCU: 0x1F539, offset: 0x1F539, size: 0x8, addend: 0x0, symName: __ZNSt3__116allocator_traitsINS_9allocatorItEEE9constructB8ue170006ItJtEvEEvRS2_PT_DpOT0_, symObjAddr: 0xD4FC, symBinAddr: 0x10000ECF8, symSize: 0x34 }
  - { offsetInCU: 0x1F590, offset: 0x1F590, size: 0x8, addend: 0x0, symName: __ZNSt3__19allocatorItE9constructB8ue170006ItJtEEEvPT_DpOT0_, symObjAddr: 0xD530, symBinAddr: 0x10000ED2C, symSize: 0x28 }
  - { offsetInCU: 0x1F5E6, offset: 0x1F5E6, size: 0x8, addend: 0x0, symName: __ZNSt3__120__shared_ptr_emplaceItNS_9allocatorItEEEC1B8ue170006IJiEEES2_DpOT_, symObjAddr: 0xD5F0, symBinAddr: 0x10000EDEC, symSize: 0x34 }
  - { offsetInCU: 0x1F639, offset: 0x1F639, size: 0x8, addend: 0x0, symName: __ZNSt3__120__shared_ptr_emplaceItNS_9allocatorItEEEC2B8ue170006IJiEEES2_DpOT_, symObjAddr: 0xD624, symBinAddr: 0x10000EE20, symSize: 0x9C }
  - { offsetInCU: 0x1F68C, offset: 0x1F68C, size: 0x8, addend: 0x0, symName: __ZNSt3__18ios_base5widthB8ue170006El, symObjAddr: 0xD6C0, symBinAddr: 0x10000EEBC, symSize: 0x2C }
  - { offsetInCU: 0x1F6D2, offset: 0x1F6D2, size: 0x8, addend: 0x0, symName: __ZNSt3__18__iom_t4IcEC1B8ue170006Ec, symObjAddr: 0xD6EC, symBinAddr: 0x10000EEE8, symSize: 0x34 }
  - { offsetInCU: 0x1F70A, offset: 0x1F70A, size: 0x8, addend: 0x0, symName: __ZNSt3__18__iom_t4IcEC2B8ue170006Ec, symObjAddr: 0xD720, symBinAddr: 0x10000EF1C, symSize: 0x20 }
  - { offsetInCU: 0x1F742, offset: 0x1F742, size: 0x8, addend: 0x0, symName: __ZNSt3__19basic_iosIcNS_11char_traitsIcEEE4fillB8ue170006Ec, symObjAddr: 0xD740, symBinAddr: 0x10000EF3C, symSize: 0x74 }
  - { offsetInCU: 0x1F788, offset: 0x1F788, size: 0x8, addend: 0x0, symName: __ZNSt3__111char_traitsIcE11eq_int_typeB8ue170006Eii, symObjAddr: 0xD7B4, symBinAddr: 0x10000EFB0, symSize: 0x28 }
  - { offsetInCU: 0x1F7BB, offset: 0x1F7BB, size: 0x8, addend: 0x0, symName: __ZNSt3__111char_traitsIcE3eofB8ue170006Ev, symObjAddr: 0xD7DC, symBinAddr: 0x10000EFD8, symSize: 0x8 }
  - { offsetInCU: 0x1F7CF, offset: 0x1F7CF, size: 0x8, addend: 0x0, symName: __ZNKSt3__19basic_iosIcNS_11char_traitsIcEEE5widenB8ue170006Ec, symObjAddr: 0xD7E4, symBinAddr: 0x10000EFE0, symSize: 0x84 }
  - { offsetInCU: 0x1F83F, offset: 0x1F83F, size: 0x8, addend: 0x0, symName: __ZNKSt3__15ctypeIcE5widenB8ue170006Ec, symObjAddr: 0xD894, symBinAddr: 0x10000F090, symSize: 0x38 }
  - { offsetInCU: 0x1F897, offset: 0x1F897, size: 0x8, addend: 0x0, symName: __ZNKSt3__113basic_ostreamIcNS_11char_traitsIcEEE6sentrycvbB8ue170006Ev, symObjAddr: 0xDAB8, symBinAddr: 0x10000F2B4, symSize: 0x1C }
  - { offsetInCU: 0x1F8BD, offset: 0x1F8BD, size: 0x8, addend: 0x0, symName: __ZNSt3__119ostreambuf_iteratorIcNS_11char_traitsIcEEEC1B8ue170006ERNS_13basic_ostreamIcS2_EE, symObjAddr: 0xDD14, symBinAddr: 0x10000F510, symSize: 0x34 }
  - { offsetInCU: 0x1F8F5, offset: 0x1F8F5, size: 0x8, addend: 0x0, symName: __ZNKSt3__18ios_base5flagsB8ue170006Ev, symObjAddr: 0xDD48, symBinAddr: 0x10000F544, symSize: 0x18 }
  - { offsetInCU: 0x1F91D, offset: 0x1F91D, size: 0x8, addend: 0x0, symName: __ZNKSt3__19basic_iosIcNS_11char_traitsIcEEE4fillB8ue170006Ev, symObjAddr: 0xDD60, symBinAddr: 0x10000F55C, symSize: 0x64 }
  - { offsetInCU: 0x1F945, offset: 0x1F945, size: 0x8, addend: 0x0, symName: __ZNKSt3__119ostreambuf_iteratorIcNS_11char_traitsIcEEE6failedB8ue170006Ev, symObjAddr: 0xDDC4, symBinAddr: 0x10000F5C0, symSize: 0x24 }
  - { offsetInCU: 0x1F96B, offset: 0x1F96B, size: 0x8, addend: 0x0, symName: __ZNSt3__19basic_iosIcNS_11char_traitsIcEEE8setstateB8ue170006Ej, symObjAddr: 0xDDE8, symBinAddr: 0x10000F5E4, symSize: 0x2C }
  - { offsetInCU: 0x1F9A0, offset: 0x1F9A0, size: 0x8, addend: 0x0, symName: __ZNKSt3__18ios_base5widthB8ue170006Ev, symObjAddr: 0xDE14, symBinAddr: 0x10000F610, symSize: 0x18 }
  - { offsetInCU: 0x1F9C8, offset: 0x1F9C8, size: 0x8, addend: 0x0, symName: __ZNSt3__115basic_streambufIcNS_11char_traitsIcEEE5sputnB8ue170006EPKcl, symObjAddr: 0xDE2C, symBinAddr: 0x10000F628, symSize: 0x3C }
  - { offsetInCU: 0x1FA0A, offset: 0x1FA0A, size: 0x8, addend: 0x0, symName: __ZNSt3__112basic_stringIcNS_11char_traitsIcEENS_9allocatorIcEEEC1B8ue170006Emc, symObjAddr: 0xDE68, symBinAddr: 0x10000F664, symSize: 0x3C }
  - { offsetInCU: 0x1FA52, offset: 0x1FA52, size: 0x8, addend: 0x0, symName: __ZNSt3__112basic_stringIcNS_11char_traitsIcEENS_9allocatorIcEEEC2B8ue170006Emc, symObjAddr: 0xDEA4, symBinAddr: 0x10000F6A0, symSize: 0x4C }
  - { offsetInCU: 0x1FA9A, offset: 0x1FA9A, size: 0x8, addend: 0x0, symName: __ZNSt3__119ostreambuf_iteratorIcNS_11char_traitsIcEEEC2B8ue170006ERNS_13basic_ostreamIcS2_EE, symObjAddr: 0xDEF0, symBinAddr: 0x10000F6EC, symSize: 0x54 }
  - { offsetInCU: 0x1FAD2, offset: 0x1FAD2, size: 0x8, addend: 0x0, symName: __ZNKSt3__19basic_iosIcNS_11char_traitsIcEEE5rdbufB8ue170006Ev, symObjAddr: 0xDF44, symBinAddr: 0x10000F740, symSize: 0x24 }
  - { offsetInCU: 0x1FAFA, offset: 0x1FAFA, size: 0x8, addend: 0x0, symName: __ZNKSt3__18ios_base5rdbufB8ue170006Ev, symObjAddr: 0xDF68, symBinAddr: 0x10000F764, symSize: 0x18 }
  - { offsetInCU: 0x1FB20, offset: 0x1FB20, size: 0x8, addend: 0x0, symName: __ZNSt3__18ios_base8setstateB8ue170006Ej, symObjAddr: 0xDF80, symBinAddr: 0x10000F77C, symSize: 0x34 }
  - { offsetInCU: 0x1FB57, offset: 0x1FB57, size: 0x8, addend: 0x0, symName: __ZNKSt3__112basic_stringIcNS_11char_traitsIcEENS_9allocatorIcEEE4sizeB8ue170006Ev, symObjAddr: 0xDFB4, symBinAddr: 0x10000F7B0, symSize: 0x54 }
  - { offsetInCU: 0x1FB7D, offset: 0x1FB7D, size: 0x8, addend: 0x0, symName: __ZNKSt3__112basic_stringIcNS_11char_traitsIcEENS_9allocatorIcEEE15__get_long_sizeB8ue170006Ev, symObjAddr: 0xE008, symBinAddr: 0x10000F804, symSize: 0x28 }
  - { offsetInCU: 0x1FBA3, offset: 0x1FBA3, size: 0x8, addend: 0x0, symName: __ZNKSt3__112basic_stringIcNS_11char_traitsIcEENS_9allocatorIcEEE16__get_short_sizeB8ue170006Ev, symObjAddr: 0xE030, symBinAddr: 0x10000F82C, symSize: 0x34 }
  - { offsetInCU: 0x1FBC9, offset: 0x1FBC9, size: 0x8, addend: 0x0, symName: __ZNKSt3__16bitsetILm16EE9to_stringB8ue170006IcNS_11char_traitsIcEEEENS_12basic_stringIT_T0_NS_9allocatorIS6_EEEES6_S6_, symObjAddr: 0xE064, symBinAddr: 0x10000F860, symSize: 0x3C }
  - { offsetInCU: 0x1FC21, offset: 0x1FC21, size: 0x8, addend: 0x0, symName: __ZNKSt3__16bitsetILm16EE9to_stringB8ue170006IcNS_11char_traitsIcEENS_9allocatorIcEEEENS_12basic_stringIT_T0_T1_EES8_S8_, symObjAddr: 0xE0A0, symBinAddr: 0x10000F89C, symSize: 0x138 }
  - { offsetInCU: 0x1FCA7, offset: 0x1FCA7, size: 0x8, addend: 0x0, symName: __ZNKSt3__16bitsetILm16EEixB8ue170006Em, symObjAddr: 0xE1D8, symBinAddr: 0x10000F9D4, symSize: 0x3C }
  - { offsetInCU: 0x1FCDC, offset: 0x1FCDC, size: 0x8, addend: 0x0, symName: __ZNKSt3__121__bit_const_referenceINS_8__bitsetILm1ELm16EEEEcvbB8ue170006Ev, symObjAddr: 0xE214, symBinAddr: 0x10000FA10, symSize: 0x2C }
  - { offsetInCU: 0x1FD02, offset: 0x1FD02, size: 0x8, addend: 0x0, symName: __ZNSt3__112basic_stringIcNS_11char_traitsIcEENS_9allocatorIcEEEixB8ue170006Em, symObjAddr: 0xE240, symBinAddr: 0x10000FA3C, symSize: 0x30 }
  - { offsetInCU: 0x1FD37, offset: 0x1FD37, size: 0x8, addend: 0x0, symName: __ZNKSt3__18__bitsetILm1ELm16EE10__make_refB8ue170006Em, symObjAddr: 0xE270, symBinAddr: 0x10000FA6C, symSize: 0x40 }
  - { offsetInCU: 0x1FD6C, offset: 0x1FD6C, size: 0x8, addend: 0x0, symName: __ZNSt3__121__bit_const_referenceINS_8__bitsetILm1ELm16EEEEC1B8ue170006EPKmm, symObjAddr: 0xE2B0, symBinAddr: 0x10000FAAC, symSize: 0x3C }
  - { offsetInCU: 0x1FDB2, offset: 0x1FDB2, size: 0x8, addend: 0x0, symName: __ZNSt3__121__bit_const_referenceINS_8__bitsetILm1ELm16EEEEC2B8ue170006EPKmm, symObjAddr: 0xE2EC, symBinAddr: 0x10000FAE8, symSize: 0x2C }
  - { offsetInCU: 0x1FDF8, offset: 0x1FDF8, size: 0x8, addend: 0x0, symName: __ZNSt3__112basic_stringIcNS_11char_traitsIcEENS_9allocatorIcEEE13__get_pointerB8ue170006Ev, symObjAddr: 0xE318, symBinAddr: 0x10000FB14, symSize: 0x54 }
  - { offsetInCU: 0x1FE1E, offset: 0x1FE1E, size: 0x8, addend: 0x0, symName: __ZNKSt3__110shared_ptrItE3getB8ue170006Ev, symObjAddr: 0xE36C, symBinAddr: 0x10000FB68, symSize: 0x18 }
  - { offsetInCU: 0x1FE44, offset: 0x1FE44, size: 0x8, addend: 0x0, symName: __ZNSt3__16vectorINS_12basic_stringIcNS_11char_traitsIcEENS_9allocatorIcEEEENS4_IS6_EEEC2B8ue170006Ev, symObjAddr: 0xE384, symBinAddr: 0x10000FB80, symSize: 0x4C }
  - { offsetInCU: 0x1FE6E, offset: 0x1FE6E, size: 0x8, addend: 0x0, symName: __ZNSt3__111char_traitsIcE4findB8ue170006EPKcmRS2_, symObjAddr: 0xE608, symBinAddr: 0x10000FE04, symSize: 0x70 }
  - { offsetInCU: 0x1FEAD, offset: 0x1FEAD, size: 0x8, addend: 0x0, symName: __ZNSt3__111char_traitsIcE7compareB8ue170006EPKcS3_m, symObjAddr: 0xE678, symBinAddr: 0x10000FE74, symSize: 0x34 }
  - { offsetInCU: 0x1FEEC, offset: 0x1FEEC, size: 0x8, addend: 0x0, symName: __ZNSt3__19allocatorIcEC1B8ue170006Ev, symObjAddr: 0xE6EC, symBinAddr: 0x10000FEE8, symSize: 0x2C }
  - { offsetInCU: 0x1FF16, offset: 0x1FF16, size: 0x8, addend: 0x0, symName: __ZNSt3__16vectorINS_12basic_stringIcNS_11char_traitsIcEENS_9allocatorIcEEEENS4_IS6_EEE22__construct_one_at_endB8ue170006IJRKS6_EEEvDpOT_, symObjAddr: 0xE718, symBinAddr: 0x10000FF14, symSize: 0x90 }
  - { offsetInCU: 0x1FF65, offset: 0x1FF65, size: 0x8, addend: 0x0, symName: __ZNSt3__16vectorINS_12basic_stringIcNS_11char_traitsIcEENS_9allocatorIcEEEENS4_IS6_EEE21__push_back_slow_pathIRKS6_EEvOT_, symObjAddr: 0xE7A8, symBinAddr: 0x10000FFA4, symSize: 0xD8 }
  - { offsetInCU: 0x1FFC3, offset: 0x1FFC3, size: 0x8, addend: 0x0, symName: __ZNKSt3__16vectorINS_12basic_stringIcNS_11char_traitsIcEENS_9allocatorIcEEEENS4_IS6_EEE11__recommendB8ue170006Em, symObjAddr: 0xE880, symBinAddr: 0x10001007C, symSize: 0xB4 }
  - { offsetInCU: 0x20018, offset: 0x20018, size: 0x8, addend: 0x0, symName: __ZNSt3__114__split_bufferINS_12basic_stringIcNS_11char_traitsIcEENS_9allocatorIcEEEERNS4_IS6_EEEC1EmmS8_, symObjAddr: 0xE934, symBinAddr: 0x100010130, symSize: 0x44 }
  - { offsetInCU: 0x2006E, offset: 0x2006E, size: 0x8, addend: 0x0, symName: __ZNSt3__114__split_bufferINS_12basic_stringIcNS_11char_traitsIcEENS_9allocatorIcEEEERNS4_IS6_EEED1Ev, symObjAddr: 0xEA88, symBinAddr: 0x100010284, symSize: 0x2C }
  - { offsetInCU: 0x2009A, offset: 0x2009A, size: 0x8, addend: 0x0, symName: __ZNSt3__114__split_bufferINS_12basic_stringIcNS_11char_traitsIcEENS_9allocatorIcEEEERNS4_IS6_EEEC2EmmS8_, symObjAddr: 0xEAB4, symBinAddr: 0x1000102B0, symSize: 0xE0 }
  - { offsetInCU: 0x2010E, offset: 0x2010E, size: 0x8, addend: 0x0, symName: __ZNSt3__117__compressed_pairIPNS_12basic_stringIcNS_11char_traitsIcEENS_9allocatorIcEEEERNS4_IS6_EEEC1B8ue170006IDnS9_EEOT_OT0_, symObjAddr: 0xEB94, symBinAddr: 0x100010390, symSize: 0x3C }
  - { offsetInCU: 0x20166, offset: 0x20166, size: 0x8, addend: 0x0, symName: __ZNSt3__114__split_bufferINS_12basic_stringIcNS_11char_traitsIcEENS_9allocatorIcEEEERNS4_IS6_EEE7__allocB8ue170006Ev, symObjAddr: 0xEBD0, symBinAddr: 0x1000103CC, symSize: 0x28 }
  - { offsetInCU: 0x2018C, offset: 0x2018C, size: 0x8, addend: 0x0, symName: __ZNSt3__114__split_bufferINS_12basic_stringIcNS_11char_traitsIcEENS_9allocatorIcEEEERNS4_IS6_EEE9__end_capB8ue170006Ev, symObjAddr: 0xEBF8, symBinAddr: 0x1000103F4, symSize: 0x28 }
  - { offsetInCU: 0x201B2, offset: 0x201B2, size: 0x8, addend: 0x0, symName: __ZNSt3__117__compressed_pairIPNS_12basic_stringIcNS_11char_traitsIcEENS_9allocatorIcEEEERNS4_IS6_EEEC2B8ue170006IDnS9_EEOT_OT0_, symObjAddr: 0xEC20, symBinAddr: 0x10001041C, symSize: 0x48 }
  - { offsetInCU: 0x2020A, offset: 0x2020A, size: 0x8, addend: 0x0, symName: __ZNSt3__122__compressed_pair_elemIRNS_9allocatorINS_12basic_stringIcNS_11char_traitsIcEENS1_IcEEEEEELi1ELb0EEC2B8ue170006IS8_vEEOT_, symObjAddr: 0xEC68, symBinAddr: 0x100010464, symSize: 0x20 }
  - { offsetInCU: 0x2024C, offset: 0x2024C, size: 0x8, addend: 0x0, symName: __ZNSt3__117__compressed_pairIPNS_12basic_stringIcNS_11char_traitsIcEENS_9allocatorIcEEEERNS4_IS6_EEE6secondB8ue170006Ev, symObjAddr: 0xEC88, symBinAddr: 0x100010484, symSize: 0x28 }
  - { offsetInCU: 0x20272, offset: 0x20272, size: 0x8, addend: 0x0, symName: __ZNSt3__122__compressed_pair_elemIRNS_9allocatorINS_12basic_stringIcNS_11char_traitsIcEENS1_IcEEEEEELi1ELb0EE5__getB8ue170006Ev, symObjAddr: 0xECB0, symBinAddr: 0x1000104AC, symSize: 0x18 }
  - { offsetInCU: 0x20298, offset: 0x20298, size: 0x8, addend: 0x0, symName: __ZNSt3__117__compressed_pairIPNS_12basic_stringIcNS_11char_traitsIcEENS_9allocatorIcEEEERNS4_IS6_EEE5firstB8ue170006Ev, symObjAddr: 0xECC8, symBinAddr: 0x1000104C4, symSize: 0x24 }
  - { offsetInCU: 0x202BE, offset: 0x202BE, size: 0x8, addend: 0x0, symName: __ZNSt3__129_AllocatorDestroyRangeReverseINS_9allocatorINS_12basic_stringIcNS_11char_traitsIcEENS1_IcEEEEEENS_16reverse_iteratorIPS6_EEEC1B8ue170006ERS7_RSA_SD_, symObjAddr: 0xEE90, symBinAddr: 0x10001068C, symSize: 0x44 }
  - { offsetInCU: 0x2031B, offset: 0x2031B, size: 0x8, addend: 0x0, symName: __ZNSt3__116allocator_traitsINS_9allocatorINS_12basic_stringIcNS_11char_traitsIcEENS1_IcEEEEEEE9constructB8ue170006IS6_JS6_EvEEvRS7_PT_DpOT0_, symObjAddr: 0xEED4, symBinAddr: 0x1000106D0, symSize: 0x34 }
  - { offsetInCU: 0x20372, offset: 0x20372, size: 0x8, addend: 0x0, symName: __ZNSt3__128__exception_guard_exceptionsINS_29_AllocatorDestroyRangeReverseINS_9allocatorINS_12basic_stringIcNS_11char_traitsIcEENS2_IcEEEEEENS_16reverse_iteratorIPS7_EEEEE10__completeB8ue170006Ev, symObjAddr: 0xEF08, symBinAddr: 0x100010704, symSize: 0x1C }
  - { offsetInCU: 0x20398, offset: 0x20398, size: 0x8, addend: 0x0, symName: __ZNSt3__128__exception_guard_exceptionsINS_29_AllocatorDestroyRangeReverseINS_9allocatorINS_12basic_stringIcNS_11char_traitsIcEENS2_IcEEEEEENS_16reverse_iteratorIPS7_EEEEED1B8ue170006Ev, symObjAddr: 0xEF24, symBinAddr: 0x100010720, symSize: 0x2C }
  - { offsetInCU: 0x203C2, offset: 0x203C2, size: 0x8, addend: 0x0, symName: __ZNSt3__128__exception_guard_exceptionsINS_29_AllocatorDestroyRangeReverseINS_9allocatorINS_12basic_stringIcNS_11char_traitsIcEENS2_IcEEEEEENS_16reverse_iteratorIPS7_EEEEEC1B8ue170006ESC_, symObjAddr: 0xEF50, symBinAddr: 0x10001074C, symSize: 0x34 }
  - { offsetInCU: 0x203FB, offset: 0x203FB, size: 0x8, addend: 0x0, symName: __ZNSt3__128__exception_guard_exceptionsINS_29_AllocatorDestroyRangeReverseINS_9allocatorINS_12basic_stringIcNS_11char_traitsIcEENS2_IcEEEEEENS_16reverse_iteratorIPS7_EEEEEC2B8ue170006ESC_, symObjAddr: 0xEF84, symBinAddr: 0x100010780, symSize: 0x30 }
  - { offsetInCU: 0x20434, offset: 0x20434, size: 0x8, addend: 0x0, symName: __ZNSt3__129_AllocatorDestroyRangeReverseINS_9allocatorINS_12basic_stringIcNS_11char_traitsIcEENS1_IcEEEEEENS_16reverse_iteratorIPS6_EEEC2B8ue170006ERS7_RSA_SD_, symObjAddr: 0xEFB4, symBinAddr: 0x1000107B0, symSize: 0x38 }
  - { offsetInCU: 0x2048B, offset: 0x2048B, size: 0x8, addend: 0x0, symName: __ZNSt3__19allocatorINS_12basic_stringIcNS_11char_traitsIcEENS0_IcEEEEE9constructB8ue170006IS5_JS5_EEEvPT_DpOT0_, symObjAddr: 0xEFEC, symBinAddr: 0x1000107E8, symSize: 0x30 }
  - { offsetInCU: 0x204E1, offset: 0x204E1, size: 0x8, addend: 0x0, symName: __ZNSt3__112basic_stringIcNS_11char_traitsIcEENS_9allocatorIcEEEC1B8ue170006EOS5_, symObjAddr: 0xF01C, symBinAddr: 0x100010818, symSize: 0x34 }
  - { offsetInCU: 0x2051A, offset: 0x2051A, size: 0x8, addend: 0x0, symName: __ZNSt3__112basic_stringIcNS_11char_traitsIcEENS_9allocatorIcEEEC2B8ue170006EOS5_, symObjAddr: 0xF050, symBinAddr: 0x10001084C, symSize: 0x48 }
  - { offsetInCU: 0x20553, offset: 0x20553, size: 0x8, addend: 0x0, symName: __ZNSt3__128__exception_guard_exceptionsINS_29_AllocatorDestroyRangeReverseINS_9allocatorINS_12basic_stringIcNS_11char_traitsIcEENS2_IcEEEEEENS_16reverse_iteratorIPS7_EEEEED2B8ue170006Ev, symObjAddr: 0xF098, symBinAddr: 0x100010894, symSize: 0x50 }
  - { offsetInCU: 0x2057D, offset: 0x2057D, size: 0x8, addend: 0x0, symName: __ZNKSt3__129_AllocatorDestroyRangeReverseINS_9allocatorINS_12basic_stringIcNS_11char_traitsIcEENS1_IcEEEEEENS_16reverse_iteratorIPS6_EEEclB8ue170006Ev, symObjAddr: 0xF0E8, symBinAddr: 0x1000108E4, symSize: 0xB4 }
  - { offsetInCU: 0x205A4, offset: 0x205A4, size: 0x8, addend: 0x0, symName: __ZNSt3__116reverse_iteratorINS0_IPNS_12basic_stringIcNS_11char_traitsIcEENS_9allocatorIcEEEEEEEC1B8ue170006ES8_, symObjAddr: 0xF20C, symBinAddr: 0x100010A08, symSize: 0x3C }
  - { offsetInCU: 0x205DC, offset: 0x205DC, size: 0x8, addend: 0x0, symName: __ZNSt3__116reverse_iteratorINS0_IPNS_12basic_stringIcNS_11char_traitsIcEENS_9allocatorIcEEEEEEEppB8ue170006Ev, symObjAddr: 0xF2CC, symBinAddr: 0x100010AC8, symSize: 0x30 }
  - { offsetInCU: 0x20602, offset: 0x20602, size: 0x8, addend: 0x0, symName: __ZNKSt3__116reverse_iteratorINS0_IPNS_12basic_stringIcNS_11char_traitsIcEENS_9allocatorIcEEEEEEE4baseB8ue170006Ev, symObjAddr: 0xF2FC, symBinAddr: 0x100010AF8, symSize: 0x24 }
  - { offsetInCU: 0x2062E, offset: 0x2062E, size: 0x8, addend: 0x0, symName: __ZNSt3__119__to_address_helperINS_16reverse_iteratorINS1_IPNS_12basic_stringIcNS_11char_traitsIcEENS_9allocatorIcEEEEEEEEvE6__callB8ue170006ERKSA_, symObjAddr: 0xF320, symBinAddr: 0x100010B1C, symSize: 0x38 }
  - { offsetInCU: 0x20651, offset: 0x20651, size: 0x8, addend: 0x0, symName: __ZNKSt3__116reverse_iteratorINS0_IPNS_12basic_stringIcNS_11char_traitsIcEENS_9allocatorIcEEEEEEEptB8ue170006Ev, symObjAddr: 0xF358, symBinAddr: 0x100010B54, symSize: 0x24 }
  - { offsetInCU: 0x20677, offset: 0x20677, size: 0x8, addend: 0x0, symName: __ZNKSt3__116reverse_iteratorINS0_IPNS_12basic_stringIcNS_11char_traitsIcEENS_9allocatorIcEEEEEEEdeB8ue170006Ev, symObjAddr: 0xF37C, symBinAddr: 0x100010B78, symSize: 0x34 }
  - { offsetInCU: 0x206AB, offset: 0x206AB, size: 0x8, addend: 0x0, symName: __ZNSt3__116reverse_iteratorIPNS_12basic_stringIcNS_11char_traitsIcEENS_9allocatorIcEEEEEmmB8ue170006Ev, symObjAddr: 0xF3B0, symBinAddr: 0x100010BAC, symSize: 0x20 }
  - { offsetInCU: 0x206D1, offset: 0x206D1, size: 0x8, addend: 0x0, symName: __ZNSt3__116reverse_iteratorINS0_IPNS_12basic_stringIcNS_11char_traitsIcEENS_9allocatorIcEEEEEEEC2B8ue170006ES8_, symObjAddr: 0xF3D0, symBinAddr: 0x100010BCC, symSize: 0x2C }
  - { offsetInCU: 0x20709, offset: 0x20709, size: 0x8, addend: 0x0, symName: __ZNSt3__114__split_bufferINS_12basic_stringIcNS_11char_traitsIcEENS_9allocatorIcEEEERNS4_IS6_EEED2Ev, symObjAddr: 0xF3FC, symBinAddr: 0x100010BF8, symSize: 0x8C }
  - { offsetInCU: 0x20735, offset: 0x20735, size: 0x8, addend: 0x0, symName: __ZNSt3__114__split_bufferINS_12basic_stringIcNS_11char_traitsIcEENS_9allocatorIcEEEERNS4_IS6_EEE5clearB8ue170006Ev, symObjAddr: 0xF488, symBinAddr: 0x100010C84, symSize: 0x28 }
  - { offsetInCU: 0x2075B, offset: 0x2075B, size: 0x8, addend: 0x0, symName: __ZNKSt3__114__split_bufferINS_12basic_stringIcNS_11char_traitsIcEENS_9allocatorIcEEEERNS4_IS6_EEE8capacityB8ue170006Ev, symObjAddr: 0xF4B0, symBinAddr: 0x100010CAC, symSize: 0x40 }
  - { offsetInCU: 0x20781, offset: 0x20781, size: 0x8, addend: 0x0, symName: __ZNSt3__114__split_bufferINS_12basic_stringIcNS_11char_traitsIcEENS_9allocatorIcEEEERNS4_IS6_EEE17__destruct_at_endB8ue170006EPS6_, symObjAddr: 0xF4F0, symBinAddr: 0x100010CEC, symSize: 0x2C }
  - { offsetInCU: 0x207B5, offset: 0x207B5, size: 0x8, addend: 0x0, symName: __ZNSt3__114__split_bufferINS_12basic_stringIcNS_11char_traitsIcEENS_9allocatorIcEEEERNS4_IS6_EEE17__destruct_at_endB8ue170006EPS6_NS_17integral_constantIbLb0EEE, symObjAddr: 0xF51C, symBinAddr: 0x100010D18, symSize: 0x80 }
  - { offsetInCU: 0x207F6, offset: 0x207F6, size: 0x8, addend: 0x0, symName: __ZNKSt3__114__split_bufferINS_12basic_stringIcNS_11char_traitsIcEENS_9allocatorIcEEEERNS4_IS6_EEE9__end_capB8ue170006Ev, symObjAddr: 0xF59C, symBinAddr: 0x100010D98, symSize: 0x28 }
  - { offsetInCU: 0x2081C, offset: 0x2081C, size: 0x8, addend: 0x0, symName: __ZNKSt3__117__compressed_pairIPNS_12basic_stringIcNS_11char_traitsIcEENS_9allocatorIcEEEERNS4_IS6_EEE5firstB8ue170006Ev, symObjAddr: 0xF5C4, symBinAddr: 0x100010DC0, symSize: 0x24 }
  - { offsetInCU: 0x2085A, offset: 0x2085A, size: 0x8, addend: 0x0, symName: __ZNSt3__112__hash_tableINS_17__hash_value_typeINS_12basic_stringIcNS_11char_traitsIcEENS_9allocatorIcEEEE7commandEENS_22__unordered_map_hasherIS7_S9_NS_4hashIS7_EENS_8equal_toIS7_EELb1EEENS_21__unordered_map_equalIS7_S9_SE_SC_Lb1EEENS5_IS9_EEE25__emplace_unique_key_argsIS7_JRKNS_21piecewise_construct_tENS_5tupleIJRKS7_EEENSO_IJEEEEEENS_4pairINS_15__hash_iteratorIPNS_11__hash_nodeIS9_PvEEEEbEERKT_DpOT0_, symObjAddr: 0xF5E8, symBinAddr: 0x100010DE4, symSize: 0x4E8 }
  - { offsetInCU: 0x20964, offset: 0x20964, size: 0x8, addend: 0x0, symName: __ZNKSt3__115__hash_iteratorIPNS_11__hash_nodeINS_17__hash_value_typeINS_12basic_stringIcNS_11char_traitsIcEENS_9allocatorIcEEEE7commandEEPvEEEptB8ue170006Ev, symObjAddr: 0xFB00, symBinAddr: 0x1000112FC, symSize: 0x30 }
  - { offsetInCU: 0x2098A, offset: 0x2098A, size: 0x8, addend: 0x0, symName: __ZNSt3__117__hash_value_typeINS_12basic_stringIcNS_11char_traitsIcEENS_9allocatorIcEEEE7commandE11__get_valueB8ue170006Ev, symObjAddr: 0xFB30, symBinAddr: 0x10001132C, symSize: 0x14 }
  - { offsetInCU: 0x209B0, offset: 0x209B0, size: 0x8, addend: 0x0, symName: __ZNSt3__112__hash_tableINS_17__hash_value_typeINS_12basic_stringIcNS_11char_traitsIcEENS_9allocatorIcEEEE7commandEENS_22__unordered_map_hasherIS7_S9_NS_4hashIS7_EENS_8equal_toIS7_EELb1EEENS_21__unordered_map_equalIS7_S9_SE_SC_Lb1EEENS5_IS9_EEE13hash_functionB8ue170006Ev, symObjAddr: 0xFB44, symBinAddr: 0x100011340, symSize: 0x28 }
  - { offsetInCU: 0x209D6, offset: 0x209D6, size: 0x8, addend: 0x0, symName: __ZNKSt3__122__unordered_map_hasherINS_12basic_stringIcNS_11char_traitsIcEENS_9allocatorIcEEEENS_17__hash_value_typeIS6_7commandEENS_4hashIS6_EENS_8equal_toIS6_EELb1EEclB8ue170006ERKS6_, symObjAddr: 0xFB6C, symBinAddr: 0x100011368, symSize: 0x2C }
  - { offsetInCU: 0x20A0B, offset: 0x20A0B, size: 0x8, addend: 0x0, symName: __ZNKSt3__112__hash_tableINS_17__hash_value_typeINS_12basic_stringIcNS_11char_traitsIcEENS_9allocatorIcEEEE7commandEENS_22__unordered_map_hasherIS7_S9_NS_4hashIS7_EENS_8equal_toIS7_EELb1EEENS_21__unordered_map_equalIS7_S9_SE_SC_Lb1EEENS5_IS9_EEE12bucket_countB8ue170006Ev, symObjAddr: 0xFB98, symBinAddr: 0x100011394, symSize: 0x28 }
  - { offsetInCU: 0x20A31, offset: 0x20A31, size: 0x8, addend: 0x0, symName: __ZNKSt3__110unique_ptrIA_PNS_16__hash_node_baseIPNS_11__hash_nodeINS_17__hash_value_typeINS_12basic_stringIcNS_11char_traitsIcEENS_9allocatorIcEEEE7commandEEPvEEEENS_25__bucket_list_deallocatorINS7_ISG_EEEEEixB8ue170006Em, symObjAddr: 0xFC58, symBinAddr: 0x100011454, symSize: 0x34 }
  - { offsetInCU: 0x20A66, offset: 0x20A66, size: 0x8, addend: 0x0, symName: __ZNKSt3__116__hash_node_baseIPNS_11__hash_nodeINS_17__hash_value_typeINS_12basic_stringIcNS_11char_traitsIcEENS_9allocatorIcEEEE7commandEEPvEEE6__hashB8ue170006Ev, symObjAddr: 0xFC8C, symBinAddr: 0x100011488, symSize: 0x18 }
  - { offsetInCU: 0x20A8C, offset: 0x20A8C, size: 0x8, addend: 0x0, symName: __ZNSt3__112__hash_tableINS_17__hash_value_typeINS_12basic_stringIcNS_11char_traitsIcEENS_9allocatorIcEEEE7commandEENS_22__unordered_map_hasherIS7_S9_NS_4hashIS7_EENS_8equal_toIS7_EELb1EEENS_21__unordered_map_equalIS7_S9_SE_SC_Lb1EEENS5_IS9_EEE6key_eqB8ue170006Ev, symObjAddr: 0xFCA4, symBinAddr: 0x1000114A0, symSize: 0x28 }
  - { offsetInCU: 0x20AB2, offset: 0x20AB2, size: 0x8, addend: 0x0, symName: __ZNKSt3__121__unordered_map_equalINS_12basic_stringIcNS_11char_traitsIcEENS_9allocatorIcEEEENS_17__hash_value_typeIS6_7commandEENS_8equal_toIS6_EENS_4hashIS6_EELb1EEclB8ue170006ERKS9_RKS6_, symObjAddr: 0xFCCC, symBinAddr: 0x1000114C8, symSize: 0x48 }
  - { offsetInCU: 0x20AF6, offset: 0x20AF6, size: 0x8, addend: 0x0, symName: __ZNSt3__116__hash_node_baseIPNS_11__hash_nodeINS_17__hash_value_typeINS_12basic_stringIcNS_11char_traitsIcEENS_9allocatorIcEEEE7commandEEPvEEE8__upcastB8ue170006Ev, symObjAddr: 0xFD14, symBinAddr: 0x100011510, symSize: 0x24 }
  - { offsetInCU: 0x20B1C, offset: 0x20B1C, size: 0x8, addend: 0x0, symName: __ZNSt3__112__hash_tableINS_17__hash_value_typeINS_12basic_stringIcNS_11char_traitsIcEENS_9allocatorIcEEEE7commandEENS_22__unordered_map_hasherIS7_S9_NS_4hashIS7_EENS_8equal_toIS7_EELb1EEENS_21__unordered_map_equalIS7_S9_SE_SC_Lb1EEENS5_IS9_EEE21__construct_node_hashIRKNS_21piecewise_construct_tEJNS_5tupleIJRKS7_EEENSO_IJEEEEEENS_10unique_ptrINS_11__hash_nodeIS9_PvEENS_22__hash_node_destructorINS5_ISW_EEEEEEmOT_DpOT0_, symObjAddr: 0xFD38, symBinAddr: 0x100011534, symSize: 0x150 }
  - { offsetInCU: 0x20BB8, offset: 0x20BB8, size: 0x8, addend: 0x0, symName: __ZNSt3__112__hash_tableINS_17__hash_value_typeINS_12basic_stringIcNS_11char_traitsIcEENS_9allocatorIcEEEE7commandEENS_22__unordered_map_hasherIS7_S9_NS_4hashIS7_EENS_8equal_toIS7_EELb1EEENS_21__unordered_map_equalIS7_S9_SE_SC_Lb1EEENS5_IS9_EEE4sizeB8ue170006Ev, symObjAddr: 0xFE88, symBinAddr: 0x100011684, symSize: 0x28 }
  - { offsetInCU: 0x20BDE, offset: 0x20BDE, size: 0x8, addend: 0x0, symName: __ZNSt3__112__hash_tableINS_17__hash_value_typeINS_12basic_stringIcNS_11char_traitsIcEENS_9allocatorIcEEEE7commandEENS_22__unordered_map_hasherIS7_S9_NS_4hashIS7_EENS_8equal_toIS7_EELb1EEENS_21__unordered_map_equalIS7_S9_SE_SC_Lb1EEENS5_IS9_EEE15max_load_factorB8ue170006Ev, symObjAddr: 0xFEB0, symBinAddr: 0x1000116AC, symSize: 0x28 }
  - { offsetInCU: 0x20C04, offset: 0x20C04, size: 0x8, addend: 0x0, symName: __ZNSt3__112__hash_tableINS_17__hash_value_typeINS_12basic_stringIcNS_11char_traitsIcEENS_9allocatorIcEEEE7commandEENS_22__unordered_map_hasherIS7_S9_NS_4hashIS7_EENS_8equal_toIS7_EELb1EEENS_21__unordered_map_equalIS7_S9_SE_SC_Lb1EEENS5_IS9_EEE15__rehash_uniqueB8ue170006Em, symObjAddr: 0xFED8, symBinAddr: 0x1000116D4, symSize: 0x2C }
  - { offsetInCU: 0x20C38, offset: 0x20C38, size: 0x8, addend: 0x0, symName: __Z4ceilB8ue170006f, symObjAddr: 0xFF54, symBinAddr: 0x100011750, symSize: 0x18 }
  - { offsetInCU: 0x20C67, offset: 0x20C67, size: 0x8, addend: 0x0, symName: __ZNSt3__117__compressed_pairINS_16__hash_node_baseIPNS_11__hash_nodeINS_17__hash_value_typeINS_12basic_stringIcNS_11char_traitsIcEENS_9allocatorIcEEEE7commandEEPvEEEENS7_ISD_EEE5firstB8ue170006Ev, symObjAddr: 0xFF6C, symBinAddr: 0x100011768, symSize: 0x24 }
  - { offsetInCU: 0x20C8D, offset: 0x20C8D, size: 0x8, addend: 0x0, symName: __ZNSt3__116__hash_node_baseIPNS_11__hash_nodeINS_17__hash_value_typeINS_12basic_stringIcNS_11char_traitsIcEENS_9allocatorIcEEEE7commandEEPvEEE5__ptrB8ue170006Ev, symObjAddr: 0xFF90, symBinAddr: 0x10001178C, symSize: 0x24 }
  - { offsetInCU: 0x20CB3, offset: 0x20CB3, size: 0x8, addend: 0x0, symName: __ZNKSt3__110unique_ptrINS_11__hash_nodeINS_17__hash_value_typeINS_12basic_stringIcNS_11char_traitsIcEENS_9allocatorIcEEEE7commandEEPvEENS_22__hash_node_destructorINS6_ISC_EEEEEptB8ue170006Ev, symObjAddr: 0xFFB4, symBinAddr: 0x1000117B0, symSize: 0x28 }
  - { offsetInCU: 0x20CD9, offset: 0x20CD9, size: 0x8, addend: 0x0, symName: __ZNKSt3__110unique_ptrINS_11__hash_nodeINS_17__hash_value_typeINS_12basic_stringIcNS_11char_traitsIcEENS_9allocatorIcEEEE7commandEEPvEENS_22__hash_node_destructorINS6_ISC_EEEEE3getB8ue170006Ev, symObjAddr: 0xFFDC, symBinAddr: 0x1000117D8, symSize: 0x28 }
  - { offsetInCU: 0x20CFF, offset: 0x20CFF, size: 0x8, addend: 0x0, symName: __ZNSt3__110unique_ptrINS_11__hash_nodeINS_17__hash_value_typeINS_12basic_stringIcNS_11char_traitsIcEENS_9allocatorIcEEEE7commandEEPvEENS_22__hash_node_destructorINS6_ISC_EEEEE7releaseB8ue170006Ev, symObjAddr: 0x10004, symBinAddr: 0x100011800, symSize: 0x44 }
  - { offsetInCU: 0x20D34, offset: 0x20D34, size: 0x8, addend: 0x0, symName: __ZNSt3__110unique_ptrINS_11__hash_nodeINS_17__hash_value_typeINS_12basic_stringIcNS_11char_traitsIcEENS_9allocatorIcEEEE7commandEEPvEENS_22__hash_node_destructorINS6_ISC_EEEEED1B8ue170006Ev, symObjAddr: 0x10048, symBinAddr: 0x100011844, symSize: 0x2C }
  - { offsetInCU: 0x20D5E, offset: 0x20D5E, size: 0x8, addend: 0x0, symName: __ZNSt3__115__hash_iteratorIPNS_11__hash_nodeINS_17__hash_value_typeINS_12basic_stringIcNS_11char_traitsIcEENS_9allocatorIcEEEE7commandEEPvEEEC1B8ue170006EPNS_16__hash_node_baseISD_EE, symObjAddr: 0x10074, symBinAddr: 0x100011870, symSize: 0x34 }
  - { offsetInCU: 0x20D9D, offset: 0x20D9D, size: 0x8, addend: 0x0, symName: __ZNSt3__14pairINS_15__hash_iteratorIPNS_11__hash_nodeINS_17__hash_value_typeINS_12basic_stringIcNS_11char_traitsIcEENS_9allocatorIcEEEE7commandEEPvEEEEbEC1B8ue170006ISF_RbLSC_0EEEOT_OT0_, symObjAddr: 0x100A8, symBinAddr: 0x1000118A4, symSize: 0x3C }
  - { offsetInCU: 0x20DFB, offset: 0x20DFB, size: 0x8, addend: 0x0, symName: __ZNSt3__117__compressed_pairImNS_22__unordered_map_hasherINS_12basic_stringIcNS_11char_traitsIcEENS_9allocatorIcEEEENS_17__hash_value_typeIS7_7commandEENS_4hashIS7_EENS_8equal_toIS7_EELb1EEEE6secondB8ue170006Ev, symObjAddr: 0x100E4, symBinAddr: 0x1000118E0, symSize: 0x24 }
  - { offsetInCU: 0x20E21, offset: 0x20E21, size: 0x8, addend: 0x0, symName: __ZNSt3__122__compressed_pair_elemINS_22__unordered_map_hasherINS_12basic_stringIcNS_11char_traitsIcEENS_9allocatorIcEEEENS_17__hash_value_typeIS7_7commandEENS_4hashIS7_EENS_8equal_toIS7_EELb1EEELi1ELb1EE5__getB8ue170006Ev, symObjAddr: 0x10108, symBinAddr: 0x100011904, symSize: 0x14 }
  - { offsetInCU: 0x20E47, offset: 0x20E47, size: 0x8, addend: 0x0, symName: __ZNKSt3__113__string_hashIcNS_9allocatorIcEEEclB8ue170006ERKNS_12basic_stringIcNS_11char_traitsIcEES2_EE, symObjAddr: 0x1011C, symBinAddr: 0x100011918, symSize: 0x64 }
  - { offsetInCU: 0x20E7C, offset: 0x20E7C, size: 0x8, addend: 0x0, symName: __ZNKSt3__121__murmur2_or_cityhashImLm64EEclB8ue170006EPKvm, symObjAddr: 0x101BC, symBinAddr: 0x1000119B8, symSize: 0x410 }
  - { offsetInCU: 0x20F16, offset: 0x20F16, size: 0x8, addend: 0x0, symName: __ZNSt3__121__murmur2_or_cityhashImLm64EE18__hash_len_0_to_16B8ue170006EPKcm, symObjAddr: 0x105CC, symBinAddr: 0x100011DC8, symSize: 0x1C0 }
  - { offsetInCU: 0x20FF2, offset: 0x20FF2, size: 0x8, addend: 0x0, symName: __ZNSt3__121__murmur2_or_cityhashImLm64EE19__hash_len_17_to_32B8ue170006EPKcm, symObjAddr: 0x1078C, symBinAddr: 0x100011F88, symSize: 0x130 }
  - { offsetInCU: 0x2105B, offset: 0x2105B, size: 0x8, addend: 0x0, symName: __ZNSt3__121__murmur2_or_cityhashImLm64EE19__hash_len_33_to_64B8ue170006EPKcm, symObjAddr: 0x108BC, symBinAddr: 0x1000120B8, symSize: 0x2B8 }
  - { offsetInCU: 0x21110, offset: 0x21110, size: 0x8, addend: 0x0, symName: __ZNSt3__121__murmur2_or_cityhashImLm64EE13__hash_len_16B8ue170006Emm, symObjAddr: 0x10B94, symBinAddr: 0x100012390, symSize: 0x80 }
  - { offsetInCU: 0x2116B, offset: 0x2116B, size: 0x8, addend: 0x0, symName: __ZNSt3__121__murmur2_or_cityhashImLm64EE29__weak_hash_len_32_with_seedsB8ue170006EPKcmm, symObjAddr: 0x10C14, symBinAddr: 0x100012410, symSize: 0x88 }
  - { offsetInCU: 0x211AA, offset: 0x211AA, size: 0x8, addend: 0x0, symName: __ZNSt3__121__murmur2_or_cityhashImLm64EE8__rotateB8ue170006Emi, symObjAddr: 0x10C9C, symBinAddr: 0x100012498, symSize: 0x64 }
  - { offsetInCU: 0x211DB, offset: 0x211DB, size: 0x8, addend: 0x0, symName: __ZNSt3__14pairImmEaSB8ue170006EOS1_, symObjAddr: 0x10D00, symBinAddr: 0x1000124FC, symSize: 0x30 }
  - { offsetInCU: 0x21210, offset: 0x21210, size: 0x8, addend: 0x0, symName: __ZNSt3__121__murmur2_or_cityhashImLm64EE11__shift_mixB8ue170006Em, symObjAddr: 0x10D6C, symBinAddr: 0x100012568, symSize: 0x1C }
  - { offsetInCU: 0x21233, offset: 0x21233, size: 0x8, addend: 0x0, symName: __ZNSt3__121__murmur2_or_cityhashImLm64EE22__rotate_by_at_least_1B8ue170006Emi, symObjAddr: 0x10D88, symBinAddr: 0x100012584, symSize: 0x38 }
  - { offsetInCU: 0x21264, offset: 0x21264, size: 0x8, addend: 0x0, symName: __ZNSt3__121__murmur2_or_cityhashImLm64EE29__weak_hash_len_32_with_seedsB8ue170006Emmmmmm, symObjAddr: 0x10DE0, symBinAddr: 0x1000125DC, symSize: 0xD8 }
  - { offsetInCU: 0x212E1, offset: 0x212E1, size: 0x8, addend: 0x0, symName: __ZNSt3__14pairImmEC1B8ue170006ImmLPv0EEEOT_OT0_, symObjAddr: 0x10EB8, symBinAddr: 0x1000126B4, symSize: 0x3C }
  - { offsetInCU: 0x2133F, offset: 0x2133F, size: 0x8, addend: 0x0, symName: __ZNSt3__14pairImmEC2B8ue170006ImmLPv0EEEOT_OT0_, symObjAddr: 0x10EF4, symBinAddr: 0x1000126F0, symSize: 0x34 }
  - { offsetInCU: 0x2139D, offset: 0x2139D, size: 0x8, addend: 0x0, symName: __ZNKSt3__110unique_ptrIA_PNS_16__hash_node_baseIPNS_11__hash_nodeINS_17__hash_value_typeINS_12basic_stringIcNS_11char_traitsIcEENS_9allocatorIcEEEE7commandEEPvEEEENS_25__bucket_list_deallocatorINS7_ISG_EEEEE11get_deleterB8ue170006Ev, symObjAddr: 0x10F28, symBinAddr: 0x100012724, symSize: 0x24 }
  - { offsetInCU: 0x213C3, offset: 0x213C3, size: 0x8, addend: 0x0, symName: __ZNKSt3__125__bucket_list_deallocatorINS_9allocatorIPNS_16__hash_node_baseIPNS_11__hash_nodeINS_17__hash_value_typeINS_12basic_stringIcNS_11char_traitsIcEENS1_IcEEEE7commandEEPvEEEEEEE4sizeB8ue170006Ev, symObjAddr: 0x10F4C, symBinAddr: 0x100012748, symSize: 0x28 }
  - { offsetInCU: 0x213E9, offset: 0x213E9, size: 0x8, addend: 0x0, symName: __ZNKSt3__117__compressed_pairIPPNS_16__hash_node_baseIPNS_11__hash_nodeINS_17__hash_value_typeINS_12basic_stringIcNS_11char_traitsIcEENS_9allocatorIcEEEE7commandEEPvEEEENS_25__bucket_list_deallocatorINS7_ISG_EEEEE6secondB8ue170006Ev, symObjAddr: 0x10F74, symBinAddr: 0x100012770, symSize: 0x28 }
  - { offsetInCU: 0x2140F, offset: 0x2140F, size: 0x8, addend: 0x0, symName: __ZNKSt3__122__compressed_pair_elemINS_25__bucket_list_deallocatorINS_9allocatorIPNS_16__hash_node_baseIPNS_11__hash_nodeINS_17__hash_value_typeINS_12basic_stringIcNS_11char_traitsIcEENS2_IcEEEE7commandEEPvEEEEEEEELi1ELb0EE5__getB8ue170006Ev, symObjAddr: 0x10F9C, symBinAddr: 0x100012798, symSize: 0x14 }
  - { offsetInCU: 0x21435, offset: 0x21435, size: 0x8, addend: 0x0, symName: __ZNKSt3__117__compressed_pairImNS_9allocatorIPNS_16__hash_node_baseIPNS_11__hash_nodeINS_17__hash_value_typeINS_12basic_stringIcNS_11char_traitsIcEENS1_IcEEEE7commandEEPvEEEEEEE5firstB8ue170006Ev, symObjAddr: 0x10FB0, symBinAddr: 0x1000127AC, symSize: 0x24 }
  - { offsetInCU: 0x2145B, offset: 0x2145B, size: 0x8, addend: 0x0, symName: __ZNKSt3__117__compressed_pairIPPNS_16__hash_node_baseIPNS_11__hash_nodeINS_17__hash_value_typeINS_12basic_stringIcNS_11char_traitsIcEENS_9allocatorIcEEEE7commandEEPvEEEENS_25__bucket_list_deallocatorINS7_ISG_EEEEE5firstB8ue170006Ev, symObjAddr: 0x10FD4, symBinAddr: 0x1000127D0, symSize: 0x24 }
  - { offsetInCU: 0x21481, offset: 0x21481, size: 0x8, addend: 0x0, symName: __ZNKSt3__122__compressed_pair_elemIPPNS_16__hash_node_baseIPNS_11__hash_nodeINS_17__hash_value_typeINS_12basic_stringIcNS_11char_traitsIcEENS_9allocatorIcEEEE7commandEEPvEEEELi0ELb0EE5__getB8ue170006Ev, symObjAddr: 0x10FF8, symBinAddr: 0x1000127F4, symSize: 0x14 }
  - { offsetInCU: 0x214A7, offset: 0x214A7, size: 0x8, addend: 0x0, symName: __ZNSt3__117__compressed_pairIfNS_21__unordered_map_equalINS_12basic_stringIcNS_11char_traitsIcEENS_9allocatorIcEEEENS_17__hash_value_typeIS7_7commandEENS_8equal_toIS7_EENS_4hashIS7_EELb1EEEE6secondB8ue170006Ev, symObjAddr: 0x1100C, symBinAddr: 0x100012808, symSize: 0x24 }
  - { offsetInCU: 0x214CD, offset: 0x214CD, size: 0x8, addend: 0x0, symName: __ZNSt3__122__compressed_pair_elemINS_21__unordered_map_equalINS_12basic_stringIcNS_11char_traitsIcEENS_9allocatorIcEEEENS_17__hash_value_typeIS7_7commandEENS_8equal_toIS7_EENS_4hashIS7_EELb1EEELi1ELb1EE5__getB8ue170006Ev, symObjAddr: 0x11030, symBinAddr: 0x10001282C, symSize: 0x14 }
  - { offsetInCU: 0x214F3, offset: 0x214F3, size: 0x8, addend: 0x0, symName: __ZNKSt3__18equal_toINS_12basic_stringIcNS_11char_traitsIcEENS_9allocatorIcEEEEEclB8ue170006ERKS6_S9_, symObjAddr: 0x11044, symBinAddr: 0x100012840, symSize: 0x34 }
  - { offsetInCU: 0x21537, offset: 0x21537, size: 0x8, addend: 0x0, symName: __ZNKSt3__117__hash_value_typeINS_12basic_stringIcNS_11char_traitsIcEENS_9allocatorIcEEEE7commandE11__get_valueB8ue170006Ev, symObjAddr: 0x11078, symBinAddr: 0x100012874, symSize: 0x14 }
  - { offsetInCU: 0x2155D, offset: 0x2155D, size: 0x8, addend: 0x0, symName: __ZNSt3__114pointer_traitsIPNS_16__hash_node_baseIPNS_11__hash_nodeINS_17__hash_value_typeINS_12basic_stringIcNS_11char_traitsIcEENS_9allocatorIcEEEE7commandEEPvEEEEE10pointer_toB8ue170006ERSF_, symObjAddr: 0x111D4, symBinAddr: 0x1000129D0, symSize: 0x14 }
  - { offsetInCU: 0x21580, offset: 0x21580, size: 0x8, addend: 0x0, symName: __ZNSt3__112__hash_tableINS_17__hash_value_typeINS_12basic_stringIcNS_11char_traitsIcEENS_9allocatorIcEEEE7commandEENS_22__unordered_map_hasherIS7_S9_NS_4hashIS7_EENS_8equal_toIS7_EELb1EEENS_21__unordered_map_equalIS7_S9_SE_SC_Lb1EEENS5_IS9_EEE12__node_allocB8ue170006Ev, symObjAddr: 0x111E8, symBinAddr: 0x1000129E4, symSize: 0x28 }
  - { offsetInCU: 0x215A6, offset: 0x215A6, size: 0x8, addend: 0x0, symName: __ZNSt3__116allocator_traitsINS_9allocatorINS_11__hash_nodeINS_17__hash_value_typeINS_12basic_stringIcNS_11char_traitsIcEENS1_IcEEEE7commandEEPvEEEEE8allocateB8ue170006ERSD_m, symObjAddr: 0x11210, symBinAddr: 0x100012A0C, symSize: 0x2C }
  - { offsetInCU: 0x215D9, offset: 0x215D9, size: 0x8, addend: 0x0, symName: __ZNSt3__122__hash_node_destructorINS_9allocatorINS_11__hash_nodeINS_17__hash_value_typeINS_12basic_stringIcNS_11char_traitsIcEENS1_IcEEEE7commandEEPvEEEEEC1B8ue170006ERSD_b, symObjAddr: 0x1123C, symBinAddr: 0x100012A38, symSize: 0x48 }
  - { offsetInCU: 0x21627, offset: 0x21627, size: 0x8, addend: 0x0, symName: __ZNSt3__110unique_ptrINS_11__hash_nodeINS_17__hash_value_typeINS_12basic_stringIcNS_11char_traitsIcEENS_9allocatorIcEEEE7commandEEPvEENS_22__hash_node_destructorINS6_ISC_EEEEEC1B8ue170006ILb1EvEEPSC_NS_16__dependent_typeINS_27__unique_ptr_deleter_sfinaeISF_EEXT_EE20__good_rval_ref_typeE, symObjAddr: 0x11284, symBinAddr: 0x100012A80, symSize: 0x3C }
  - { offsetInCU: 0x21678, offset: 0x21678, size: 0x8, addend: 0x0, symName: __ZNSt3__116allocator_traitsINS_9allocatorINS_11__hash_nodeINS_17__hash_value_typeINS_12basic_stringIcNS_11char_traitsIcEENS1_IcEEEE7commandEEPvEEEEE9constructB8ue170006INS_4pairIKS8_S9_EEJRKNS_21piecewise_construct_tENS_5tupleIJRSH_EEENSM_IJEEEEvEEvRSD_PT_DpOT0_, symObjAddr: 0x112C0, symBinAddr: 0x100012ABC, symSize: 0x44 }
  - { offsetInCU: 0x216F7, offset: 0x216F7, size: 0x8, addend: 0x0, symName: __ZNSt3__122__hash_key_value_typesINS_17__hash_value_typeINS_12basic_stringIcNS_11char_traitsIcEENS_9allocatorIcEEEE7commandEEE9__get_ptrB8ue170006ERS9_, symObjAddr: 0x11304, symBinAddr: 0x100012B00, symSize: 0x24 }
  - { offsetInCU: 0x2171A, offset: 0x2171A, size: 0x8, addend: 0x0, symName: __ZNSt3__110unique_ptrINS_11__hash_nodeINS_17__hash_value_typeINS_12basic_stringIcNS_11char_traitsIcEENS_9allocatorIcEEEE7commandEEPvEENS_22__hash_node_destructorINS6_ISC_EEEEE11get_deleterB8ue170006Ev, symObjAddr: 0x11328, symBinAddr: 0x100012B24, symSize: 0x24 }
  - { offsetInCU: 0x21740, offset: 0x21740, size: 0x8, addend: 0x0, symName: __ZNSt3__117__compressed_pairINS_16__hash_node_baseIPNS_11__hash_nodeINS_17__hash_value_typeINS_12basic_stringIcNS_11char_traitsIcEENS_9allocatorIcEEEE7commandEEPvEEEENS7_ISD_EEE6secondB8ue170006Ev, symObjAddr: 0x1134C, symBinAddr: 0x100012B48, symSize: 0x24 }
  - { offsetInCU: 0x21766, offset: 0x21766, size: 0x8, addend: 0x0, symName: __ZNSt3__122__compressed_pair_elemINS_9allocatorINS_11__hash_nodeINS_17__hash_value_typeINS_12basic_stringIcNS_11char_traitsIcEENS1_IcEEEE7commandEEPvEEEELi1ELb1EE5__getB8ue170006Ev, symObjAddr: 0x11370, symBinAddr: 0x100012B6C, symSize: 0x14 }
  - { offsetInCU: 0x2178C, offset: 0x2178C, size: 0x8, addend: 0x0, symName: __ZNSt3__19allocatorINS_11__hash_nodeINS_17__hash_value_typeINS_12basic_stringIcNS_11char_traitsIcEENS0_IcEEEE7commandEEPvEEE8allocateB8ue170006Em, symObjAddr: 0x11384, symBinAddr: 0x100012B80, symSize: 0x5C }
  - { offsetInCU: 0x217CB, offset: 0x217CB, size: 0x8, addend: 0x0, symName: __ZNSt3__116allocator_traitsINS_9allocatorINS_11__hash_nodeINS_17__hash_value_typeINS_12basic_stringIcNS_11char_traitsIcEENS1_IcEEEE7commandEEPvEEEEE8max_sizeB8ue170006ISD_vEEmRKSD_, symObjAddr: 0x113E0, symBinAddr: 0x100012BDC, symSize: 0x24 }
  - { offsetInCU: 0x217F9, offset: 0x217F9, size: 0x8, addend: 0x0, symName: __ZNKSt3__19allocatorINS_11__hash_nodeINS_17__hash_value_typeINS_12basic_stringIcNS_11char_traitsIcEENS0_IcEEEE7commandEEPvEEE8max_sizeB8ue170006Ev, symObjAddr: 0x11404, symBinAddr: 0x100012C00, symSize: 0x18 }
  - { offsetInCU: 0x2181F, offset: 0x2181F, size: 0x8, addend: 0x0, symName: __ZNSt3__122__hash_node_destructorINS_9allocatorINS_11__hash_nodeINS_17__hash_value_typeINS_12basic_stringIcNS_11char_traitsIcEENS1_IcEEEE7commandEEPvEEEEEC2B8ue170006ERSD_b, symObjAddr: 0x1141C, symBinAddr: 0x100012C18, symSize: 0x38 }
  - { offsetInCU: 0x21867, offset: 0x21867, size: 0x8, addend: 0x0, symName: __ZNSt3__110unique_ptrINS_11__hash_nodeINS_17__hash_value_typeINS_12basic_stringIcNS_11char_traitsIcEENS_9allocatorIcEEEE7commandEEPvEENS_22__hash_node_destructorINS6_ISC_EEEEEC2B8ue170006ILb1EvEEPSC_NS_16__dependent_typeINS_27__unique_ptr_deleter_sfinaeISF_EEXT_EE20__good_rval_ref_typeE, symObjAddr: 0x11454, symBinAddr: 0x100012C50, symSize: 0x48 }
  - { offsetInCU: 0x218B8, offset: 0x218B8, size: 0x8, addend: 0x0, symName: __ZNSt3__117__compressed_pairIPNS_11__hash_nodeINS_17__hash_value_typeINS_12basic_stringIcNS_11char_traitsIcEENS_9allocatorIcEEEE7commandEEPvEENS_22__hash_node_destructorINS6_ISC_EEEEEC1B8ue170006IRSD_SG_EEOT_OT0_, symObjAddr: 0x1149C, symBinAddr: 0x100012C98, symSize: 0x3C }
  - { offsetInCU: 0x21910, offset: 0x21910, size: 0x8, addend: 0x0, symName: __ZNSt3__117__compressed_pairIPNS_11__hash_nodeINS_17__hash_value_typeINS_12basic_stringIcNS_11char_traitsIcEENS_9allocatorIcEEEE7commandEEPvEENS_22__hash_node_destructorINS6_ISC_EEEEEC2B8ue170006IRSD_SG_EEOT_OT0_, symObjAddr: 0x114D8, symBinAddr: 0x100012CD4, symSize: 0x48 }
  - { offsetInCU: 0x21968, offset: 0x21968, size: 0x8, addend: 0x0, symName: __ZNSt3__122__compressed_pair_elemIPNS_11__hash_nodeINS_17__hash_value_typeINS_12basic_stringIcNS_11char_traitsIcEENS_9allocatorIcEEEE7commandEEPvEELi0ELb0EEC2B8ue170006IRSD_vEEOT_, symObjAddr: 0x11520, symBinAddr: 0x100012D1C, symSize: 0x24 }
  - { offsetInCU: 0x219AA, offset: 0x219AA, size: 0x8, addend: 0x0, symName: __ZNSt3__122__compressed_pair_elemINS_22__hash_node_destructorINS_9allocatorINS_11__hash_nodeINS_17__hash_value_typeINS_12basic_stringIcNS_11char_traitsIcEENS2_IcEEEE7commandEEPvEEEEEELi1ELb0EEC2B8ue170006ISF_vEEOT_, symObjAddr: 0x11544, symBinAddr: 0x100012D40, symSize: 0x24 }
  - { offsetInCU: 0x219EC, offset: 0x219EC, size: 0x8, addend: 0x0, symName: __ZNSt3__19allocatorINS_11__hash_nodeINS_17__hash_value_typeINS_12basic_stringIcNS_11char_traitsIcEENS0_IcEEEE7commandEEPvEEE9constructB8ue170006INS_4pairIKS7_S8_EEJRKNS_21piecewise_construct_tENS_5tupleIJRSF_EEENSK_IJEEEEEEvPT_DpOT0_, symObjAddr: 0x11568, symBinAddr: 0x100012D64, symSize: 0x44 }
  - { offsetInCU: 0x21A68, offset: 0x21A68, size: 0x8, addend: 0x0, symName: __ZNSt3__14pairIKNS_12basic_stringIcNS_11char_traitsIcEENS_9allocatorIcEEEE7commandEC1B8ue170006IJRS7_EJEEENS_21piecewise_construct_tENS_5tupleIJDpT_EEENSD_IJDpT0_EEE, symObjAddr: 0x115AC, symBinAddr: 0x100012DA8, symSize: 0x3C }
  - { offsetInCU: 0x21ACF, offset: 0x21ACF, size: 0x8, addend: 0x0, symName: __ZNSt3__14pairIKNS_12basic_stringIcNS_11char_traitsIcEENS_9allocatorIcEEEE7commandEC1B8ue170006IJRS7_EJEJLm0EEJEEENS_21piecewise_construct_tERNS_5tupleIJDpT_EEERNSD_IJDpT0_EEENS_15__tuple_indicesIJXspT1_EEEENSM_IJXspT2_EEEE, symObjAddr: 0x115E8, symBinAddr: 0x100012DE4, symSize: 0x3C }
  - { offsetInCU: 0x21B5C, offset: 0x21B5C, size: 0x8, addend: 0x0, symName: __ZNSt3__14pairIKNS_12basic_stringIcNS_11char_traitsIcEENS_9allocatorIcEEEE7commandEC2B8ue170006IJRS7_EJEJLm0EEJEEENS_21piecewise_construct_tERNS_5tupleIJDpT_EEERNSD_IJDpT0_EEENS_15__tuple_indicesIJXspT1_EEEENSM_IJXspT2_EEEE, symObjAddr: 0x11624, symBinAddr: 0x100012E20, symSize: 0x48 }
  - { offsetInCU: 0x21BE9, offset: 0x21BE9, size: 0x8, addend: 0x0, symName: __ZNSt3__112__tuple_leafILm0ERKNS_12basic_stringIcNS_11char_traitsIcEENS_9allocatorIcEEEELb0EE3getB8ue170006Ev, symObjAddr: 0x11690, symBinAddr: 0x100012E8C, symSize: 0x18 }
  - { offsetInCU: 0x21C0F, offset: 0x21C0F, size: 0x8, addend: 0x0, symName: __ZNSt3__117__compressed_pairIPNS_11__hash_nodeINS_17__hash_value_typeINS_12basic_stringIcNS_11char_traitsIcEENS_9allocatorIcEEEE7commandEEPvEENS_22__hash_node_destructorINS6_ISC_EEEEE6secondB8ue170006Ev, symObjAddr: 0x116A8, symBinAddr: 0x100012EA4, symSize: 0x28 }
  - { offsetInCU: 0x21C35, offset: 0x21C35, size: 0x8, addend: 0x0, symName: __ZNSt3__122__compressed_pair_elemINS_22__hash_node_destructorINS_9allocatorINS_11__hash_nodeINS_17__hash_value_typeINS_12basic_stringIcNS_11char_traitsIcEENS2_IcEEEE7commandEEPvEEEEEELi1ELb0EE5__getB8ue170006Ev, symObjAddr: 0x116D0, symBinAddr: 0x100012ECC, symSize: 0x14 }
  - { offsetInCU: 0x21C5B, offset: 0x21C5B, size: 0x8, addend: 0x0, symName: __ZNSt3__117__compressed_pairImNS_22__unordered_map_hasherINS_12basic_stringIcNS_11char_traitsIcEENS_9allocatorIcEEEENS_17__hash_value_typeIS7_7commandEENS_4hashIS7_EENS_8equal_toIS7_EELb1EEEE5firstB8ue170006Ev, symObjAddr: 0x116E4, symBinAddr: 0x100012EE0, symSize: 0x24 }
  - { offsetInCU: 0x21C81, offset: 0x21C81, size: 0x8, addend: 0x0, symName: __ZNSt3__117__compressed_pairIfNS_21__unordered_map_equalINS_12basic_stringIcNS_11char_traitsIcEENS_9allocatorIcEEEENS_17__hash_value_typeIS7_7commandEENS_8equal_toIS7_EENS_4hashIS7_EELb1EEEE5firstB8ue170006Ev, symObjAddr: 0x11708, symBinAddr: 0x100012F04, symSize: 0x24 }
  - { offsetInCU: 0x21CA7, offset: 0x21CA7, size: 0x8, addend: 0x0, symName: __ZNSt3__122__compressed_pair_elemIfLi0ELb0EE5__getB8ue170006Ev, symObjAddr: 0x1172C, symBinAddr: 0x100012F28, symSize: 0x14 }
  - { offsetInCU: 0x21CCD, offset: 0x21CCD, size: 0x8, addend: 0x0, symName: __ZNSt3__112__hash_tableINS_17__hash_value_typeINS_12basic_stringIcNS_11char_traitsIcEENS_9allocatorIcEEEE7commandEENS_22__unordered_map_hasherIS7_S9_NS_4hashIS7_EENS_8equal_toIS7_EELb1EEENS_21__unordered_map_equalIS7_S9_SE_SC_Lb1EEENS5_IS9_EEE8__rehashILb1EEEvm, symObjAddr: 0x11740, symBinAddr: 0x100012F3C, symSize: 0x1A8 }
  - { offsetInCU: 0x21D1D, offset: 0x21D1D, size: 0x8, addend: 0x0, symName: __ZNSt3__112__hash_tableINS_17__hash_value_typeINS_12basic_stringIcNS_11char_traitsIcEENS_9allocatorIcEEEE7commandEENS_22__unordered_map_hasherIS7_S9_NS_4hashIS7_EENS_8equal_toIS7_EELb1EEENS_21__unordered_map_equalIS7_S9_SE_SC_Lb1EEENS5_IS9_EEE11__do_rehashILb1EEEvm, symObjAddr: 0x118E8, symBinAddr: 0x1000130E4, symSize: 0x288 }
  - { offsetInCU: 0x21E04, offset: 0x21E04, size: 0x8, addend: 0x0, symName: __ZNSt3__110unique_ptrIA_PNS_16__hash_node_baseIPNS_11__hash_nodeINS_17__hash_value_typeINS_12basic_stringIcNS_11char_traitsIcEENS_9allocatorIcEEEE7commandEEPvEEEENS_25__bucket_list_deallocatorINS7_ISG_EEEEE11get_deleterB8ue170006Ev, symObjAddr: 0x11BDC, symBinAddr: 0x1000133D8, symSize: 0x24 }
  - { offsetInCU: 0x21E2A, offset: 0x21E2A, size: 0x8, addend: 0x0, symName: __ZNSt3__125__bucket_list_deallocatorINS_9allocatorIPNS_16__hash_node_baseIPNS_11__hash_nodeINS_17__hash_value_typeINS_12basic_stringIcNS_11char_traitsIcEENS1_IcEEEE7commandEEPvEEEEEEE7__allocB8ue170006Ev, symObjAddr: 0x11C00, symBinAddr: 0x1000133FC, symSize: 0x24 }
  - { offsetInCU: 0x21E50, offset: 0x21E50, size: 0x8, addend: 0x0, symName: __ZNSt3__110unique_ptrIA_PNS_16__hash_node_baseIPNS_11__hash_nodeINS_17__hash_value_typeINS_12basic_stringIcNS_11char_traitsIcEENS_9allocatorIcEEEE7commandEEPvEEEENS_25__bucket_list_deallocatorINS7_ISG_EEEEE5resetB8ue170006IPSG_EENS_9enable_ifIXsr28_CheckArrayPointerConversionIT_EE5valueEvE4typeESP_, symObjAddr: 0x11C24, symBinAddr: 0x100013420, symSize: 0x78 }
  - { offsetInCU: 0x21E9D, offset: 0x21E9D, size: 0x8, addend: 0x0, symName: __ZNSt3__116allocator_traitsINS_9allocatorIPNS_16__hash_node_baseIPNS_11__hash_nodeINS_17__hash_value_typeINS_12basic_stringIcNS_11char_traitsIcEENS1_IcEEEE7commandEEPvEEEEEEE8allocateB8ue170006ERSH_m, symObjAddr: 0x11C9C, symBinAddr: 0x100013498, symSize: 0x2C }
  - { offsetInCU: 0x21ED0, offset: 0x21ED0, size: 0x8, addend: 0x0, symName: __ZNSt3__125__bucket_list_deallocatorINS_9allocatorIPNS_16__hash_node_baseIPNS_11__hash_nodeINS_17__hash_value_typeINS_12basic_stringIcNS_11char_traitsIcEENS1_IcEEEE7commandEEPvEEEEEEE4sizeB8ue170006Ev, symObjAddr: 0x11CC8, symBinAddr: 0x1000134C4, symSize: 0x24 }
  - { offsetInCU: 0x21EF6, offset: 0x21EF6, size: 0x8, addend: 0x0, symName: __ZNSt3__117__compressed_pairIPPNS_16__hash_node_baseIPNS_11__hash_nodeINS_17__hash_value_typeINS_12basic_stringIcNS_11char_traitsIcEENS_9allocatorIcEEEE7commandEEPvEEEENS_25__bucket_list_deallocatorINS7_ISG_EEEEE6secondB8ue170006Ev, symObjAddr: 0x11CEC, symBinAddr: 0x1000134E8, symSize: 0x28 }
  - { offsetInCU: 0x21F1C, offset: 0x21F1C, size: 0x8, addend: 0x0, symName: __ZNSt3__122__compressed_pair_elemINS_25__bucket_list_deallocatorINS_9allocatorIPNS_16__hash_node_baseIPNS_11__hash_nodeINS_17__hash_value_typeINS_12basic_stringIcNS_11char_traitsIcEENS2_IcEEEE7commandEEPvEEEEEEEELi1ELb0EE5__getB8ue170006Ev, symObjAddr: 0x11D14, symBinAddr: 0x100013510, symSize: 0x14 }
  - { offsetInCU: 0x21F42, offset: 0x21F42, size: 0x8, addend: 0x0, symName: __ZNSt3__117__compressed_pairImNS_9allocatorIPNS_16__hash_node_baseIPNS_11__hash_nodeINS_17__hash_value_typeINS_12basic_stringIcNS_11char_traitsIcEENS1_IcEEEE7commandEEPvEEEEEEE6secondB8ue170006Ev, symObjAddr: 0x11D28, symBinAddr: 0x100013524, symSize: 0x24 }
  - { offsetInCU: 0x21F68, offset: 0x21F68, size: 0x8, addend: 0x0, symName: __ZNSt3__122__compressed_pair_elemINS_9allocatorIPNS_16__hash_node_baseIPNS_11__hash_nodeINS_17__hash_value_typeINS_12basic_stringIcNS_11char_traitsIcEENS1_IcEEEE7commandEEPvEEEEEELi1ELb1EE5__getB8ue170006Ev, symObjAddr: 0x11D4C, symBinAddr: 0x100013548, symSize: 0x14 }
  - { offsetInCU: 0x21F8E, offset: 0x21F8E, size: 0x8, addend: 0x0, symName: __ZNSt3__117__compressed_pairIPPNS_16__hash_node_baseIPNS_11__hash_nodeINS_17__hash_value_typeINS_12basic_stringIcNS_11char_traitsIcEENS_9allocatorIcEEEE7commandEEPvEEEENS_25__bucket_list_deallocatorINS7_ISG_EEEEE5firstB8ue170006Ev, symObjAddr: 0x11D60, symBinAddr: 0x10001355C, symSize: 0x24 }
  - { offsetInCU: 0x21FB4, offset: 0x21FB4, size: 0x8, addend: 0x0, symName: __ZNSt3__125__bucket_list_deallocatorINS_9allocatorIPNS_16__hash_node_baseIPNS_11__hash_nodeINS_17__hash_value_typeINS_12basic_stringIcNS_11char_traitsIcEENS1_IcEEEE7commandEEPvEEEEEEEclB8ue170006EPSG_, symObjAddr: 0x11D84, symBinAddr: 0x100013580, symSize: 0x58 }
  - { offsetInCU: 0x21FE9, offset: 0x21FE9, size: 0x8, addend: 0x0, symName: __ZNSt3__122__compressed_pair_elemIPPNS_16__hash_node_baseIPNS_11__hash_nodeINS_17__hash_value_typeINS_12basic_stringIcNS_11char_traitsIcEENS_9allocatorIcEEEE7commandEEPvEEEELi0ELb0EE5__getB8ue170006Ev, symObjAddr: 0x11DDC, symBinAddr: 0x1000135D8, symSize: 0x14 }
  - { offsetInCU: 0x2200F, offset: 0x2200F, size: 0x8, addend: 0x0, symName: __ZNSt3__116allocator_traitsINS_9allocatorIPNS_16__hash_node_baseIPNS_11__hash_nodeINS_17__hash_value_typeINS_12basic_stringIcNS_11char_traitsIcEENS1_IcEEEE7commandEEPvEEEEEEE10deallocateB8ue170006ERSH_PSG_m, symObjAddr: 0x11DF0, symBinAddr: 0x1000135EC, symSize: 0x34 }
  - { offsetInCU: 0x22051, offset: 0x22051, size: 0x8, addend: 0x0, symName: __ZNSt3__19allocatorIPNS_16__hash_node_baseIPNS_11__hash_nodeINS_17__hash_value_typeINS_12basic_stringIcNS_11char_traitsIcEENS0_IcEEEE7commandEEPvEEEEE10deallocateB8ue170006EPSF_m, symObjAddr: 0x11E24, symBinAddr: 0x100013620, symSize: 0x40 }
  - { offsetInCU: 0x22093, offset: 0x22093, size: 0x8, addend: 0x0, symName: __ZNSt3__19allocatorIPNS_16__hash_node_baseIPNS_11__hash_nodeINS_17__hash_value_typeINS_12basic_stringIcNS_11char_traitsIcEENS0_IcEEEE7commandEEPvEEEEE8allocateB8ue170006Em, symObjAddr: 0x11E64, symBinAddr: 0x100013660, symSize: 0x58 }
  - { offsetInCU: 0x220D2, offset: 0x220D2, size: 0x8, addend: 0x0, symName: __ZNSt3__116allocator_traitsINS_9allocatorIPNS_16__hash_node_baseIPNS_11__hash_nodeINS_17__hash_value_typeINS_12basic_stringIcNS_11char_traitsIcEENS1_IcEEEE7commandEEPvEEEEEEE8max_sizeB8ue170006ISH_vEEmRKSH_, symObjAddr: 0x11EBC, symBinAddr: 0x1000136B8, symSize: 0x24 }
  - { offsetInCU: 0x22100, offset: 0x22100, size: 0x8, addend: 0x0, symName: __ZNKSt3__19allocatorIPNS_16__hash_node_baseIPNS_11__hash_nodeINS_17__hash_value_typeINS_12basic_stringIcNS_11char_traitsIcEENS0_IcEEEE7commandEEPvEEEEE8max_sizeB8ue170006Ev, symObjAddr: 0x11EE0, symBinAddr: 0x1000136DC, symSize: 0x14 }
  - { offsetInCU: 0x22126, offset: 0x22126, size: 0x8, addend: 0x0, symName: __ZNSt3__117__compressed_pairImNS_9allocatorIPNS_16__hash_node_baseIPNS_11__hash_nodeINS_17__hash_value_typeINS_12basic_stringIcNS_11char_traitsIcEENS1_IcEEEE7commandEEPvEEEEEEE5firstB8ue170006Ev, symObjAddr: 0x11EF4, symBinAddr: 0x1000136F0, symSize: 0x24 }
  - { offsetInCU: 0x2214C, offset: 0x2214C, size: 0x8, addend: 0x0, symName: __ZNSt3__122__compressed_pair_elemINS_16__hash_node_baseIPNS_11__hash_nodeINS_17__hash_value_typeINS_12basic_stringIcNS_11char_traitsIcEENS_9allocatorIcEEEE7commandEEPvEEEELi0ELb0EE5__getB8ue170006Ev, symObjAddr: 0x11F34, symBinAddr: 0x100013730, symSize: 0x14 }
  - { offsetInCU: 0x22172, offset: 0x22172, size: 0x8, addend: 0x0, symName: __ZNKSt3__117__compressed_pairIPNS_11__hash_nodeINS_17__hash_value_typeINS_12basic_stringIcNS_11char_traitsIcEENS_9allocatorIcEEEE7commandEEPvEENS_22__hash_node_destructorINS6_ISC_EEEEE5firstB8ue170006Ev, symObjAddr: 0x11F48, symBinAddr: 0x100013744, symSize: 0x24 }
  - { offsetInCU: 0x22198, offset: 0x22198, size: 0x8, addend: 0x0, symName: __ZNKSt3__122__compressed_pair_elemIPNS_11__hash_nodeINS_17__hash_value_typeINS_12basic_stringIcNS_11char_traitsIcEENS_9allocatorIcEEEE7commandEEPvEELi0ELb0EE5__getB8ue170006Ev, symObjAddr: 0x11F6C, symBinAddr: 0x100013768, symSize: 0x14 }
  - { offsetInCU: 0x221BE, offset: 0x221BE, size: 0x8, addend: 0x0, symName: __ZNSt3__117__compressed_pairIPNS_11__hash_nodeINS_17__hash_value_typeINS_12basic_stringIcNS_11char_traitsIcEENS_9allocatorIcEEEE7commandEEPvEENS_22__hash_node_destructorINS6_ISC_EEEEE5firstB8ue170006Ev, symObjAddr: 0x11F80, symBinAddr: 0x10001377C, symSize: 0x24 }
  - { offsetInCU: 0x221E4, offset: 0x221E4, size: 0x8, addend: 0x0, symName: __ZNSt3__122__compressed_pair_elemIPNS_11__hash_nodeINS_17__hash_value_typeINS_12basic_stringIcNS_11char_traitsIcEENS_9allocatorIcEEEE7commandEEPvEELi0ELb0EE5__getB8ue170006Ev, symObjAddr: 0x11FA4, symBinAddr: 0x1000137A0, symSize: 0x14 }
  - { offsetInCU: 0x2220A, offset: 0x2220A, size: 0x8, addend: 0x0, symName: __ZNSt3__110unique_ptrINS_11__hash_nodeINS_17__hash_value_typeINS_12basic_stringIcNS_11char_traitsIcEENS_9allocatorIcEEEE7commandEEPvEENS_22__hash_node_destructorINS6_ISC_EEEEED2B8ue170006Ev, symObjAddr: 0x11FB8, symBinAddr: 0x1000137B4, symSize: 0x30 }
  - { offsetInCU: 0x22234, offset: 0x22234, size: 0x8, addend: 0x0, symName: __ZNSt3__110unique_ptrINS_11__hash_nodeINS_17__hash_value_typeINS_12basic_stringIcNS_11char_traitsIcEENS_9allocatorIcEEEE7commandEEPvEENS_22__hash_node_destructorINS6_ISC_EEEEE5resetB8ue170006EPSC_, symObjAddr: 0x11FE8, symBinAddr: 0x1000137E4, symSize: 0x78 }
  - { offsetInCU: 0x22278, offset: 0x22278, size: 0x8, addend: 0x0, symName: __ZNSt3__122__hash_node_destructorINS_9allocatorINS_11__hash_nodeINS_17__hash_value_typeINS_12basic_stringIcNS_11char_traitsIcEENS1_IcEEEE7commandEEPvEEEEEclB8ue170006EPSC_, symObjAddr: 0x12060, symBinAddr: 0x10001385C, symSize: 0x98 }
  - { offsetInCU: 0x222AD, offset: 0x222AD, size: 0x8, addend: 0x0, symName: __ZNSt3__116allocator_traitsINS_9allocatorINS_11__hash_nodeINS_17__hash_value_typeINS_12basic_stringIcNS_11char_traitsIcEENS1_IcEEEE7commandEEPvEEEEE7destroyB8ue170006INS_4pairIKS8_S9_EEvvEEvRSD_PT_, symObjAddr: 0x120F8, symBinAddr: 0x1000138F4, symSize: 0x28 }
  - { offsetInCU: 0x222E7, offset: 0x222E7, size: 0x8, addend: 0x0, symName: __ZNSt3__116allocator_traitsINS_9allocatorINS_11__hash_nodeINS_17__hash_value_typeINS_12basic_stringIcNS_11char_traitsIcEENS1_IcEEEE7commandEEPvEEEEE10deallocateB8ue170006ERSD_PSC_m, symObjAddr: 0x12120, symBinAddr: 0x10001391C, symSize: 0x34 }
  - { offsetInCU: 0x22329, offset: 0x22329, size: 0x8, addend: 0x0, symName: __ZNSt3__14pairIKNS_12basic_stringIcNS_11char_traitsIcEENS_9allocatorIcEEEE7commandED1Ev, symObjAddr: 0x12154, symBinAddr: 0x100013950, symSize: 0x2C }
  - { offsetInCU: 0x22355, offset: 0x22355, size: 0x8, addend: 0x0, symName: __ZNSt3__14pairIKNS_12basic_stringIcNS_11char_traitsIcEENS_9allocatorIcEEEE7commandED2Ev, symObjAddr: 0x12180, symBinAddr: 0x10001397C, symSize: 0x2C }
  - { offsetInCU: 0x22381, offset: 0x22381, size: 0x8, addend: 0x0, symName: __ZNSt3__19allocatorINS_11__hash_nodeINS_17__hash_value_typeINS_12basic_stringIcNS_11char_traitsIcEENS0_IcEEEE7commandEEPvEEE10deallocateB8ue170006EPSB_m, symObjAddr: 0x121AC, symBinAddr: 0x1000139A8, symSize: 0x44 }
  - { offsetInCU: 0x223C3, offset: 0x223C3, size: 0x8, addend: 0x0, symName: __ZNSt3__115__hash_iteratorIPNS_11__hash_nodeINS_17__hash_value_typeINS_12basic_stringIcNS_11char_traitsIcEENS_9allocatorIcEEEE7commandEEPvEEEC2B8ue170006EPNS_16__hash_node_baseISD_EE, symObjAddr: 0x121F0, symBinAddr: 0x1000139EC, symSize: 0x20 }
  - { offsetInCU: 0x223FC, offset: 0x223FC, size: 0x8, addend: 0x0, symName: __ZNSt3__14pairINS_15__hash_iteratorIPNS_11__hash_nodeINS_17__hash_value_typeINS_12basic_stringIcNS_11char_traitsIcEENS_9allocatorIcEEEE7commandEEPvEEEEbEC2B8ue170006ISF_RbLSC_0EEEOT_OT0_, symObjAddr: 0x12210, symBinAddr: 0x100013A0C, symSize: 0x38 }
  - { offsetInCU: 0x2245A, offset: 0x2245A, size: 0x8, addend: 0x0, symName: __ZNSt3__15tupleIJRKNS_12basic_stringIcNS_11char_traitsIcEENS_9allocatorIcEEEEEEC1B8ue170006INS_4_AndELi0EEES8_, symObjAddr: 0x12248, symBinAddr: 0x100013A44, symSize: 0x34 }
  - { offsetInCU: 0x224A2, offset: 0x224A2, size: 0x8, addend: 0x0, symName: __ZNSt3__15tupleIJRKNS_12basic_stringIcNS_11char_traitsIcEENS_9allocatorIcEEEEEEC2B8ue170006INS_4_AndELi0EEES8_, symObjAddr: 0x1227C, symBinAddr: 0x100013A78, symSize: 0x34 }
  - { offsetInCU: 0x224EA, offset: 0x224EA, size: 0x8, addend: 0x0, symName: __ZNSt3__112__tuple_implINS_15__tuple_indicesIJLm0EEEEJRKNS_12basic_stringIcNS_11char_traitsIcEENS_9allocatorIcEEEEEEC1B8ue170006IJLm0EEJSA_EJEJEJSA_EEENS1_IJXspT_EEEENS_13__tuple_typesIJDpT0_EEENS1_IJXspT1_EEEENSE_IJDpT2_EEEDpOT3_, symObjAddr: 0x122B0, symBinAddr: 0x100013AAC, symSize: 0x34 }
  - { offsetInCU: 0x2257B, offset: 0x2257B, size: 0x8, addend: 0x0, symName: __ZNSt3__112__tuple_implINS_15__tuple_indicesIJLm0EEEEJRKNS_12basic_stringIcNS_11char_traitsIcEENS_9allocatorIcEEEEEEC2B8ue170006IJLm0EEJSA_EJEJEJSA_EEENS1_IJXspT_EEEENS_13__tuple_typesIJDpT0_EEENS1_IJXspT1_EEEENSE_IJDpT2_EEEDpOT3_, symObjAddr: 0x122E4, symBinAddr: 0x100013AE0, symSize: 0x34 }
  - { offsetInCU: 0x2260C, offset: 0x2260C, size: 0x8, addend: 0x0, symName: __ZNSt3__112__tuple_leafILm0ERKNS_12basic_stringIcNS_11char_traitsIcEENS_9allocatorIcEEEELb0EEC2B8ue170006IS8_vEEOT_, symObjAddr: 0x12318, symBinAddr: 0x100013B14, symSize: 0x20 }
  - { offsetInCU: 0x2264F, offset: 0x2264F, size: 0x8, addend: 0x0, symName: __ZNSt3__114pointer_traitsIPNS_17__hash_value_typeINS_12basic_stringIcNS_11char_traitsIcEENS_9allocatorIcEEEE7commandEEE10pointer_toB8ue170006ERS9_, symObjAddr: 0x12338, symBinAddr: 0x100013B34, symSize: 0x14 }
  - { offsetInCU: 0x22672, offset: 0x22672, size: 0x8, addend: 0x0, symName: __ZNKSt3__112__hash_tableINS_17__hash_value_typeINS_12basic_stringIcNS_11char_traitsIcEENS_9allocatorIcEEEE7commandEENS_22__unordered_map_hasherIS7_S9_NS_4hashIS7_EENS_8equal_toIS7_EELb1EEENS_21__unordered_map_equalIS7_S9_SE_SC_Lb1EEENS5_IS9_EEE14__count_uniqueIS7_EEmRKT_, symObjAddr: 0x1234C, symBinAddr: 0x100013B48, symSize: 0x64 }
  - { offsetInCU: 0x226B2, offset: 0x226B2, size: 0x8, addend: 0x0, symName: __ZNKSt3__112__hash_tableINS_17__hash_value_typeINS_12basic_stringIcNS_11char_traitsIcEENS_9allocatorIcEEEE7commandEENS_22__unordered_map_hasherIS7_S9_NS_4hashIS7_EENS_8equal_toIS7_EELb1EEENS_21__unordered_map_equalIS7_S9_SE_SC_Lb1EEENS5_IS9_EEE4findIS7_EENS_21__hash_const_iteratorIPNS_11__hash_nodeIS9_PvEEEERKT_, symObjAddr: 0x123E4, symBinAddr: 0x100013BE0, symSize: 0x1B8 }
  - { offsetInCU: 0x2273D, offset: 0x2273D, size: 0x8, addend: 0x0, symName: __ZNKSt3__112__hash_tableINS_17__hash_value_typeINS_12basic_stringIcNS_11char_traitsIcEENS_9allocatorIcEEEE7commandEENS_22__unordered_map_hasherIS7_S9_NS_4hashIS7_EENS_8equal_toIS7_EELb1EEENS_21__unordered_map_equalIS7_S9_SE_SC_Lb1EEENS5_IS9_EEE3endEv, symObjAddr: 0x1259C, symBinAddr: 0x100013D98, symSize: 0x2C }
  - { offsetInCU: 0x22765, offset: 0x22765, size: 0x8, addend: 0x0, symName: __ZNKSt3__112__hash_tableINS_17__hash_value_typeINS_12basic_stringIcNS_11char_traitsIcEENS_9allocatorIcEEEE7commandEENS_22__unordered_map_hasherIS7_S9_NS_4hashIS7_EENS_8equal_toIS7_EELb1EEENS_21__unordered_map_equalIS7_S9_SE_SC_Lb1EEENS5_IS9_EEE13hash_functionB8ue170006Ev, symObjAddr: 0x125F8, symBinAddr: 0x100013DF4, symSize: 0x28 }
  - { offsetInCU: 0x2278B, offset: 0x2278B, size: 0x8, addend: 0x0, symName: __ZNKSt3__112__hash_tableINS_17__hash_value_typeINS_12basic_stringIcNS_11char_traitsIcEENS_9allocatorIcEEEE7commandEENS_22__unordered_map_hasherIS7_S9_NS_4hashIS7_EENS_8equal_toIS7_EELb1EEENS_21__unordered_map_equalIS7_S9_SE_SC_Lb1EEENS5_IS9_EEE6key_eqB8ue170006Ev, symObjAddr: 0x12620, symBinAddr: 0x100013E1C, symSize: 0x28 }
  - { offsetInCU: 0x227B1, offset: 0x227B1, size: 0x8, addend: 0x0, symName: __ZNSt3__121__hash_const_iteratorIPNS_11__hash_nodeINS_17__hash_value_typeINS_12basic_stringIcNS_11char_traitsIcEENS_9allocatorIcEEEE7commandEEPvEEEC1B8ue170006EPNS_16__hash_node_baseISD_EE, symObjAddr: 0x12648, symBinAddr: 0x100013E44, symSize: 0x34 }
  - { offsetInCU: 0x227EA, offset: 0x227EA, size: 0x8, addend: 0x0, symName: __ZNKSt3__117__compressed_pairImNS_22__unordered_map_hasherINS_12basic_stringIcNS_11char_traitsIcEENS_9allocatorIcEEEENS_17__hash_value_typeIS7_7commandEENS_4hashIS7_EENS_8equal_toIS7_EELb1EEEE6secondB8ue170006Ev, symObjAddr: 0x1267C, symBinAddr: 0x100013E78, symSize: 0x24 }
  - { offsetInCU: 0x22810, offset: 0x22810, size: 0x8, addend: 0x0, symName: __ZNKSt3__122__compressed_pair_elemINS_22__unordered_map_hasherINS_12basic_stringIcNS_11char_traitsIcEENS_9allocatorIcEEEENS_17__hash_value_typeIS7_7commandEENS_4hashIS7_EENS_8equal_toIS7_EELb1EEELi1ELb1EE5__getB8ue170006Ev, symObjAddr: 0x126A0, symBinAddr: 0x100013E9C, symSize: 0x14 }
  - { offsetInCU: 0x22836, offset: 0x22836, size: 0x8, addend: 0x0, symName: __ZNKSt3__117__compressed_pairIfNS_21__unordered_map_equalINS_12basic_stringIcNS_11char_traitsIcEENS_9allocatorIcEEEENS_17__hash_value_typeIS7_7commandEENS_8equal_toIS7_EENS_4hashIS7_EELb1EEEE6secondB8ue170006Ev, symObjAddr: 0x126B4, symBinAddr: 0x100013EB0, symSize: 0x24 }
  - { offsetInCU: 0x2285C, offset: 0x2285C, size: 0x8, addend: 0x0, symName: __ZNKSt3__122__compressed_pair_elemINS_21__unordered_map_equalINS_12basic_stringIcNS_11char_traitsIcEENS_9allocatorIcEEEENS_17__hash_value_typeIS7_7commandEENS_8equal_toIS7_EENS_4hashIS7_EELb1EEELi1ELb1EE5__getB8ue170006Ev, symObjAddr: 0x126D8, symBinAddr: 0x100013ED4, symSize: 0x14 }
  - { offsetInCU: 0x22882, offset: 0x22882, size: 0x8, addend: 0x0, symName: __ZNSt3__121__hash_const_iteratorIPNS_11__hash_nodeINS_17__hash_value_typeINS_12basic_stringIcNS_11char_traitsIcEENS_9allocatorIcEEEE7commandEEPvEEEC2B8ue170006EPNS_16__hash_node_baseISD_EE, symObjAddr: 0x126EC, symBinAddr: 0x100013EE8, symSize: 0x20 }
  - { offsetInCU: 0x228BB, offset: 0x228BB, size: 0x8, addend: 0x0, symName: __ZNSt3__19basic_iosIcNS_11char_traitsIcEEEC2B8ue170006Ev, symObjAddr: 0x1270C, symBinAddr: 0x100013F08, symSize: 0x44 }
  - { offsetInCU: 0x228E5, offset: 0x228E5, size: 0x8, addend: 0x0, symName: __ZNSt3__113basic_istreamIcNS_11char_traitsIcEEEC2B8ue170006EPNS_15basic_streambufIcS2_EE, symObjAddr: 0x12750, symBinAddr: 0x100013F4C, symSize: 0x64 }
  - { offsetInCU: 0x2292A, offset: 0x2292A, size: 0x8, addend: 0x0, symName: __ZNSt3__18ios_baseC2B8ue170006Ev, symObjAddr: 0x127B4, symBinAddr: 0x100013FB0, symSize: 0x24 }
  - { offsetInCU: 0x22954, offset: 0x22954, size: 0x8, addend: 0x0, symName: __ZNSt3__19basic_iosIcNS_11char_traitsIcEEE4initB8ue170006EPNS_15basic_streambufIcS2_EE, symObjAddr: 0x127D8, symBinAddr: 0x100013FD4, symSize: 0x44 }
  - { offsetInCU: 0x2298B, offset: 0x2298B, size: 0x8, addend: 0x0, symName: __ZNKSt3__113basic_filebufIcNS_11char_traitsIcEEE7is_openEv, symObjAddr: 0x1281C, symBinAddr: 0x100014018, symSize: 0x24 }
  - { offsetInCU: 0x229B3, offset: 0x229B3, size: 0x8, addend: 0x0, symName: __ZNSt3__113unordered_mapINS_12basic_stringIcNS_11char_traitsIcEENS_9allocatorIcEEEE7commandNS_4hashIS6_EENS_8equal_toIS6_EENS4_INS_4pairIKS6_S7_EEEEEC2B8ue170006Ev, symObjAddr: 0x12840, symBinAddr: 0x10001403C, symSize: 0x2C }
  - { offsetInCU: 0x229DD, offset: 0x229DD, size: 0x8, addend: 0x0, symName: __ZNSt3__112__hash_tableINS_17__hash_value_typeINS_12basic_stringIcNS_11char_traitsIcEENS_9allocatorIcEEEE7commandEENS_22__unordered_map_hasherIS7_S9_NS_4hashIS7_EENS_8equal_toIS7_EELb1EEENS_21__unordered_map_equalIS7_S9_SE_SC_Lb1EEENS5_IS9_EEEC1Ev, symObjAddr: 0x1286C, symBinAddr: 0x100014068, symSize: 0x2C }
  - { offsetInCU: 0x22A09, offset: 0x22A09, size: 0x8, addend: 0x0, symName: __ZNSt3__112__hash_tableINS_17__hash_value_typeINS_12basic_stringIcNS_11char_traitsIcEENS_9allocatorIcEEEE7commandEENS_22__unordered_map_hasherIS7_S9_NS_4hashIS7_EENS_8equal_toIS7_EELb1EEENS_21__unordered_map_equalIS7_S9_SE_SC_Lb1EEENS5_IS9_EEEC2Ev, symObjAddr: 0x12898, symBinAddr: 0x100014094, symSize: 0x7C }
  - { offsetInCU: 0x22A35, offset: 0x22A35, size: 0x8, addend: 0x0, symName: __ZNSt3__110unique_ptrIA_PNS_16__hash_node_baseIPNS_11__hash_nodeINS_17__hash_value_typeINS_12basic_stringIcNS_11char_traitsIcEENS_9allocatorIcEEEE7commandEEPvEEEENS_25__bucket_list_deallocatorINS7_ISG_EEEEEC1B8ue170006ILb1EvEEv, symObjAddr: 0x12914, symBinAddr: 0x100014110, symSize: 0x2C }
  - { offsetInCU: 0x22A6A, offset: 0x22A6A, size: 0x8, addend: 0x0, symName: __ZNSt3__117__compressed_pairINS_16__hash_node_baseIPNS_11__hash_nodeINS_17__hash_value_typeINS_12basic_stringIcNS_11char_traitsIcEENS_9allocatorIcEEEE7commandEEPvEEEENS7_ISD_EEEC1B8ue170006ILb1EvEEv, symObjAddr: 0x12940, symBinAddr: 0x10001413C, symSize: 0x2C }
  - { offsetInCU: 0x22A9F, offset: 0x22A9F, size: 0x8, addend: 0x0, symName: __ZNSt3__117__compressed_pairImNS_22__unordered_map_hasherINS_12basic_stringIcNS_11char_traitsIcEENS_9allocatorIcEEEENS_17__hash_value_typeIS7_7commandEENS_4hashIS7_EENS_8equal_toIS7_EELb1EEEEC1B8ue170006IiNS_18__default_init_tagEEEOT_OT0_, symObjAddr: 0x1296C, symBinAddr: 0x100014168, symSize: 0x3C }
  - { offsetInCU: 0x22AFD, offset: 0x22AFD, size: 0x8, addend: 0x0, symName: __ZNSt3__117__compressed_pairIfNS_21__unordered_map_equalINS_12basic_stringIcNS_11char_traitsIcEENS_9allocatorIcEEEENS_17__hash_value_typeIS7_7commandEENS_8equal_toIS7_EENS_4hashIS7_EELb1EEEEC1B8ue170006IfNS_18__default_init_tagEEEOT_OT0_, symObjAddr: 0x129A8, symBinAddr: 0x1000141A4, symSize: 0x3C }
  - { offsetInCU: 0x22B55, offset: 0x22B55, size: 0x8, addend: 0x0, symName: __ZNSt3__110unique_ptrIA_PNS_16__hash_node_baseIPNS_11__hash_nodeINS_17__hash_value_typeINS_12basic_stringIcNS_11char_traitsIcEENS_9allocatorIcEEEE7commandEEPvEEEENS_25__bucket_list_deallocatorINS7_ISG_EEEEEC2B8ue170006ILb1EvEEv, symObjAddr: 0x129E4, symBinAddr: 0x1000141E0, symSize: 0x3C }
  - { offsetInCU: 0x22B90, offset: 0x22B90, size: 0x8, addend: 0x0, symName: __ZNSt3__117__compressed_pairIPPNS_16__hash_node_baseIPNS_11__hash_nodeINS_17__hash_value_typeINS_12basic_stringIcNS_11char_traitsIcEENS_9allocatorIcEEEE7commandEEPvEEEENS_25__bucket_list_deallocatorINS7_ISG_EEEEEC1B8ue170006INS_16__value_init_tagESN_EEOT_OT0_, symObjAddr: 0x12A20, symBinAddr: 0x10001421C, symSize: 0x3C }
  - { offsetInCU: 0x22BE8, offset: 0x22BE8, size: 0x8, addend: 0x0, symName: __ZNSt3__117__compressed_pairIPPNS_16__hash_node_baseIPNS_11__hash_nodeINS_17__hash_value_typeINS_12basic_stringIcNS_11char_traitsIcEENS_9allocatorIcEEEE7commandEEPvEEEENS_25__bucket_list_deallocatorINS7_ISG_EEEEEC2B8ue170006INS_16__value_init_tagESN_EEOT_OT0_, symObjAddr: 0x12A5C, symBinAddr: 0x100014258, symSize: 0x40 }
  - { offsetInCU: 0x22C40, offset: 0x22C40, size: 0x8, addend: 0x0, symName: __ZNSt3__122__compressed_pair_elemIPPNS_16__hash_node_baseIPNS_11__hash_nodeINS_17__hash_value_typeINS_12basic_stringIcNS_11char_traitsIcEENS_9allocatorIcEEEE7commandEEPvEEEELi0ELb0EEC2B8ue170006ENS_16__value_init_tagE, symObjAddr: 0x12A9C, symBinAddr: 0x100014298, symSize: 0x18 }
  - { offsetInCU: 0x22C75, offset: 0x22C75, size: 0x8, addend: 0x0, symName: __ZNSt3__122__compressed_pair_elemINS_25__bucket_list_deallocatorINS_9allocatorIPNS_16__hash_node_baseIPNS_11__hash_nodeINS_17__hash_value_typeINS_12basic_stringIcNS_11char_traitsIcEENS2_IcEEEE7commandEEPvEEEEEEEELi1ELb0EEC2B8ue170006ENS_16__value_init_tagE, symObjAddr: 0x12AB4, symBinAddr: 0x1000142B0, symSize: 0x2C }
  - { offsetInCU: 0x22CAA, offset: 0x22CAA, size: 0x8, addend: 0x0, symName: __ZNSt3__125__bucket_list_deallocatorINS_9allocatorIPNS_16__hash_node_baseIPNS_11__hash_nodeINS_17__hash_value_typeINS_12basic_stringIcNS_11char_traitsIcEENS1_IcEEEE7commandEEPvEEEEEEEC1B8ue170006Ev, symObjAddr: 0x12AE0, symBinAddr: 0x1000142DC, symSize: 0x2C }
  - { offsetInCU: 0x22CD4, offset: 0x22CD4, size: 0x8, addend: 0x0, symName: __ZNSt3__125__bucket_list_deallocatorINS_9allocatorIPNS_16__hash_node_baseIPNS_11__hash_nodeINS_17__hash_value_typeINS_12basic_stringIcNS_11char_traitsIcEENS1_IcEEEE7commandEEPvEEEEEEEC2B8ue170006Ev, symObjAddr: 0x12B0C, symBinAddr: 0x100014308, symSize: 0x40 }
  - { offsetInCU: 0x22CFE, offset: 0x22CFE, size: 0x8, addend: 0x0, symName: __ZNSt3__117__compressed_pairImNS_9allocatorIPNS_16__hash_node_baseIPNS_11__hash_nodeINS_17__hash_value_typeINS_12basic_stringIcNS_11char_traitsIcEENS1_IcEEEE7commandEEPvEEEEEEEC1B8ue170006IiNS_18__default_init_tagEEEOT_OT0_, symObjAddr: 0x12B4C, symBinAddr: 0x100014348, symSize: 0x3C }
  - { offsetInCU: 0x22D56, offset: 0x22D56, size: 0x8, addend: 0x0, symName: __ZNSt3__117__compressed_pairImNS_9allocatorIPNS_16__hash_node_baseIPNS_11__hash_nodeINS_17__hash_value_typeINS_12basic_stringIcNS_11char_traitsIcEENS1_IcEEEE7commandEEPvEEEEEEEC2B8ue170006IiNS_18__default_init_tagEEEOT_OT0_, symObjAddr: 0x12B88, symBinAddr: 0x100014384, symSize: 0x40 }
  - { offsetInCU: 0x22DAE, offset: 0x22DAE, size: 0x8, addend: 0x0, symName: __ZNSt3__122__compressed_pair_elemINS_9allocatorIPNS_16__hash_node_baseIPNS_11__hash_nodeINS_17__hash_value_typeINS_12basic_stringIcNS_11char_traitsIcEENS1_IcEEEE7commandEEPvEEEEEELi1ELb1EEC2B8ue170006ENS_18__default_init_tagE, symObjAddr: 0x12BC8, symBinAddr: 0x1000143C4, symSize: 0x2C }
  - { offsetInCU: 0x22DE3, offset: 0x22DE3, size: 0x8, addend: 0x0, symName: __ZNSt3__19allocatorIPNS_16__hash_node_baseIPNS_11__hash_nodeINS_17__hash_value_typeINS_12basic_stringIcNS_11char_traitsIcEENS0_IcEEEE7commandEEPvEEEEEC2B8ue170006Ev, symObjAddr: 0x12BF4, symBinAddr: 0x1000143F0, symSize: 0x2C }
  - { offsetInCU: 0x22E0D, offset: 0x22E0D, size: 0x8, addend: 0x0, symName: __ZNSt3__116__non_trivial_ifILb1ENS_9allocatorIPNS_16__hash_node_baseIPNS_11__hash_nodeINS_17__hash_value_typeINS_12basic_stringIcNS_11char_traitsIcEENS1_IcEEEE7commandEEPvEEEEEEEC2B8ue170006Ev, symObjAddr: 0x12C20, symBinAddr: 0x10001441C, symSize: 0x14 }
  - { offsetInCU: 0x22E37, offset: 0x22E37, size: 0x8, addend: 0x0, symName: __ZNSt3__117__compressed_pairINS_16__hash_node_baseIPNS_11__hash_nodeINS_17__hash_value_typeINS_12basic_stringIcNS_11char_traitsIcEENS_9allocatorIcEEEE7commandEEPvEEEENS7_ISD_EEEC2B8ue170006ILb1EvEEv, symObjAddr: 0x12C34, symBinAddr: 0x100014430, symSize: 0x34 }
  - { offsetInCU: 0x22E6C, offset: 0x22E6C, size: 0x8, addend: 0x0, symName: __ZNSt3__122__compressed_pair_elemINS_16__hash_node_baseIPNS_11__hash_nodeINS_17__hash_value_typeINS_12basic_stringIcNS_11char_traitsIcEENS_9allocatorIcEEEE7commandEEPvEEEELi0ELb0EEC2B8ue170006ENS_16__value_init_tagE, symObjAddr: 0x12C68, symBinAddr: 0x100014464, symSize: 0x2C }
  - { offsetInCU: 0x22EA1, offset: 0x22EA1, size: 0x8, addend: 0x0, symName: __ZNSt3__122__compressed_pair_elemINS_9allocatorINS_11__hash_nodeINS_17__hash_value_typeINS_12basic_stringIcNS_11char_traitsIcEENS1_IcEEEE7commandEEPvEEEELi1ELb1EEC2B8ue170006ENS_16__value_init_tagE, symObjAddr: 0x12C94, symBinAddr: 0x100014490, symSize: 0x2C }
  - { offsetInCU: 0x22ED6, offset: 0x22ED6, size: 0x8, addend: 0x0, symName: __ZNSt3__116__hash_node_baseIPNS_11__hash_nodeINS_17__hash_value_typeINS_12basic_stringIcNS_11char_traitsIcEENS_9allocatorIcEEEE7commandEEPvEEEC1B8ue170006Ev, symObjAddr: 0x12CC0, symBinAddr: 0x1000144BC, symSize: 0x2C }
  - { offsetInCU: 0x22F00, offset: 0x22F00, size: 0x8, addend: 0x0, symName: __ZNSt3__116__hash_node_baseIPNS_11__hash_nodeINS_17__hash_value_typeINS_12basic_stringIcNS_11char_traitsIcEENS_9allocatorIcEEEE7commandEEPvEEEC2B8ue170006Ev, symObjAddr: 0x12CEC, symBinAddr: 0x1000144E8, symSize: 0x18 }
  - { offsetInCU: 0x22F2A, offset: 0x22F2A, size: 0x8, addend: 0x0, symName: __ZNSt3__19allocatorINS_11__hash_nodeINS_17__hash_value_typeINS_12basic_stringIcNS_11char_traitsIcEENS0_IcEEEE7commandEEPvEEEC2B8ue170006Ev, symObjAddr: 0x12D04, symBinAddr: 0x100014500, symSize: 0x2C }
  - { offsetInCU: 0x22F54, offset: 0x22F54, size: 0x8, addend: 0x0, symName: __ZNSt3__116__non_trivial_ifILb1ENS_9allocatorINS_11__hash_nodeINS_17__hash_value_typeINS_12basic_stringIcNS_11char_traitsIcEENS1_IcEEEE7commandEEPvEEEEEC2B8ue170006Ev, symObjAddr: 0x12D30, symBinAddr: 0x10001452C, symSize: 0x14 }
  - { offsetInCU: 0x22F7E, offset: 0x22F7E, size: 0x8, addend: 0x0, symName: __ZNSt3__117__compressed_pairImNS_22__unordered_map_hasherINS_12basic_stringIcNS_11char_traitsIcEENS_9allocatorIcEEEENS_17__hash_value_typeIS7_7commandEENS_4hashIS7_EENS_8equal_toIS7_EELb1EEEEC2B8ue170006IiNS_18__default_init_tagEEEOT_OT0_, symObjAddr: 0x12D44, symBinAddr: 0x100014540, symSize: 0x40 }
  - { offsetInCU: 0x22FD6, offset: 0x22FD6, size: 0x8, addend: 0x0, symName: __ZNSt3__122__compressed_pair_elemINS_22__unordered_map_hasherINS_12basic_stringIcNS_11char_traitsIcEENS_9allocatorIcEEEENS_17__hash_value_typeIS7_7commandEENS_4hashIS7_EENS_8equal_toIS7_EELb1EEELi1ELb1EEC2B8ue170006ENS_18__default_init_tagE, symObjAddr: 0x12D84, symBinAddr: 0x100014580, symSize: 0x2C }
  - { offsetInCU: 0x2300B, offset: 0x2300B, size: 0x8, addend: 0x0, symName: __ZNSt3__122__unordered_map_hasherINS_12basic_stringIcNS_11char_traitsIcEENS_9allocatorIcEEEENS_17__hash_value_typeIS6_7commandEENS_4hashIS6_EENS_8equal_toIS6_EELb1EEC2B8ue170006Ev, symObjAddr: 0x12DB0, symBinAddr: 0x1000145AC, symSize: 0x14 }
  - { offsetInCU: 0x23035, offset: 0x23035, size: 0x8, addend: 0x0, symName: __ZNSt3__117__compressed_pairIfNS_21__unordered_map_equalINS_12basic_stringIcNS_11char_traitsIcEENS_9allocatorIcEEEENS_17__hash_value_typeIS7_7commandEENS_8equal_toIS7_EENS_4hashIS7_EELb1EEEEC2B8ue170006IfNS_18__default_init_tagEEEOT_OT0_, symObjAddr: 0x12DC4, symBinAddr: 0x1000145C0, symSize: 0x40 }
  - { offsetInCU: 0x2308D, offset: 0x2308D, size: 0x8, addend: 0x0, symName: __ZNSt3__122__compressed_pair_elemIfLi0ELb0EEC2B8ue170006IfvEEOT_, symObjAddr: 0x12E04, symBinAddr: 0x100014600, symSize: 0x24 }
  - { offsetInCU: 0x230CF, offset: 0x230CF, size: 0x8, addend: 0x0, symName: __ZNSt3__122__compressed_pair_elemINS_21__unordered_map_equalINS_12basic_stringIcNS_11char_traitsIcEENS_9allocatorIcEEEENS_17__hash_value_typeIS7_7commandEENS_8equal_toIS7_EENS_4hashIS7_EELb1EEELi1ELb1EEC2B8ue170006ENS_18__default_init_tagE, symObjAddr: 0x12E28, symBinAddr: 0x100014624, symSize: 0x2C }
  - { offsetInCU: 0x23104, offset: 0x23104, size: 0x8, addend: 0x0, symName: __ZNSt3__121__unordered_map_equalINS_12basic_stringIcNS_11char_traitsIcEENS_9allocatorIcEEEENS_17__hash_value_typeIS6_7commandEENS_8equal_toIS6_EENS_4hashIS6_EELb1EEC2B8ue170006Ev, symObjAddr: 0x12E54, symBinAddr: 0x100014650, symSize: 0x14 }
  - { offsetInCU: 0x2312E, offset: 0x2312E, size: 0x8, addend: 0x0, symName: __ZNSt3__113unordered_mapINS_12basic_stringIcNS_11char_traitsIcEENS_9allocatorIcEEEE7commandNS_4hashIS6_EENS_8equal_toIS6_EENS4_INS_4pairIKS6_S7_EEEEED2B8ue170006Ev, symObjAddr: 0x12E68, symBinAddr: 0x100014664, symSize: 0x2C }
  - { offsetInCU: 0x23158, offset: 0x23158, size: 0x8, addend: 0x0, symName: __ZNSt3__112__hash_tableINS_17__hash_value_typeINS_12basic_stringIcNS_11char_traitsIcEENS_9allocatorIcEEEE7commandEENS_22__unordered_map_hasherIS7_S9_NS_4hashIS7_EENS_8equal_toIS7_EELb1EEENS_21__unordered_map_equalIS7_S9_SE_SC_Lb1EEENS5_IS9_EEED1Ev, symObjAddr: 0x12E94, symBinAddr: 0x100014690, symSize: 0x2C }
  - { offsetInCU: 0x23184, offset: 0x23184, size: 0x8, addend: 0x0, symName: __ZNSt3__112__hash_tableINS_17__hash_value_typeINS_12basic_stringIcNS_11char_traitsIcEENS_9allocatorIcEEEE7commandEENS_22__unordered_map_hasherIS7_S9_NS_4hashIS7_EENS_8equal_toIS7_EELb1EEENS_21__unordered_map_equalIS7_S9_SE_SC_Lb1EEENS5_IS9_EEED2Ev, symObjAddr: 0x12EC0, symBinAddr: 0x1000146BC, symSize: 0x48 }
  - { offsetInCU: 0x231B0, offset: 0x231B0, size: 0x8, addend: 0x0, symName: __ZNSt3__112__hash_tableINS_17__hash_value_typeINS_12basic_stringIcNS_11char_traitsIcEENS_9allocatorIcEEEE7commandEENS_22__unordered_map_hasherIS7_S9_NS_4hashIS7_EENS_8equal_toIS7_EELb1EEENS_21__unordered_map_equalIS7_S9_SE_SC_Lb1EEENS5_IS9_EEE17__deallocate_nodeEPNS_16__hash_node_baseIPNS_11__hash_nodeIS9_PvEEEE, symObjAddr: 0x12F08, symBinAddr: 0x100014704, symSize: 0xA4 }
  - { offsetInCU: 0x2321A, offset: 0x2321A, size: 0x8, addend: 0x0, symName: __ZNSt3__110unique_ptrIA_PNS_16__hash_node_baseIPNS_11__hash_nodeINS_17__hash_value_typeINS_12basic_stringIcNS_11char_traitsIcEENS_9allocatorIcEEEE7commandEEPvEEEENS_25__bucket_list_deallocatorINS7_ISG_EEEEED1B8ue170006Ev, symObjAddr: 0x12FAC, symBinAddr: 0x1000147A8, symSize: 0x2C }
  - { offsetInCU: 0x23244, offset: 0x23244, size: 0x8, addend: 0x0, symName: __ZNSt3__110unique_ptrIA_PNS_16__hash_node_baseIPNS_11__hash_nodeINS_17__hash_value_typeINS_12basic_stringIcNS_11char_traitsIcEENS_9allocatorIcEEEE7commandEEPvEEEENS_25__bucket_list_deallocatorINS7_ISG_EEEEED2B8ue170006Ev, symObjAddr: 0x12FD8, symBinAddr: 0x1000147D4, symSize: 0x30 }
  - { offsetInCU: 0x2326E, offset: 0x2326E, size: 0x8, addend: 0x0, symName: __ZNSt3__110unique_ptrIA_PNS_16__hash_node_baseIPNS_11__hash_nodeINS_17__hash_value_typeINS_12basic_stringIcNS_11char_traitsIcEENS_9allocatorIcEEEE7commandEEPvEEEENS_25__bucket_list_deallocatorINS7_ISG_EEEEE5resetB8ue170006EDn, symObjAddr: 0x13008, symBinAddr: 0x100014804, symSize: 0x6C }
  - { offsetInCU: 0x232D1, offset: 0x232D1, size: 0x8, addend: 0x0, symName: __ZNKSt3__113basic_istreamIcNS_11char_traitsIcEEE6sentrycvbB8ue170006Ev, symObjAddr: 0x132AC, symBinAddr: 0x100014AA8, symSize: 0x1C }
  - { offsetInCU: 0x232F7, offset: 0x232F7, size: 0x8, addend: 0x0, symName: __ZNSt3__112basic_stringIcNS_11char_traitsIcEENS_9allocatorIcEEE5clearB8ue170006Ev, symObjAddr: 0x132C8, symBinAddr: 0x100014AC4, symSize: 0x78 }
  - { offsetInCU: 0x2331F, offset: 0x2331F, size: 0x8, addend: 0x0, symName: __ZNSt3__115basic_streambufIcNS_11char_traitsIcEEE6sbumpcB8ue170006Ev, symObjAddr: 0x13340, symBinAddr: 0x100014B3C, symSize: 0x78 }
  - { offsetInCU: 0x23345, offset: 0x23345, size: 0x8, addend: 0x0, symName: __ZNSt3__111char_traitsIcE12to_char_typeB8ue170006Ei, symObjAddr: 0x133B8, symBinAddr: 0x100014BB4, symSize: 0x18 }
  - { offsetInCU: 0x23368, offset: 0x23368, size: 0x8, addend: 0x0, symName: __ZNSt3__111char_traitsIcE2eqEcc, symObjAddr: 0x133D0, symBinAddr: 0x100014BCC, symSize: 0x28 }
  - { offsetInCU: 0x23399, offset: 0x23399, size: 0x8, addend: 0x0, symName: __ZNKSt3__112basic_stringIcNS_11char_traitsIcEENS_9allocatorIcEEE8max_sizeB8ue170006Ev, symObjAddr: 0x133F8, symBinAddr: 0x100014BF4, symSize: 0xAC }
  - { offsetInCU: 0x233EC, offset: 0x233EC, size: 0x8, addend: 0x0, symName: __ZNSt3__18ios_base18__setstate_nothrowB8ue170006Ej, symObjAddr: 0x134A4, symBinAddr: 0x100014CA0, symSize: 0x64 }
  - { offsetInCU: 0x23421, offset: 0x23421, size: 0x8, addend: 0x0, symName: __ZNKSt3__19basic_iosIcNS_11char_traitsIcEEE10exceptionsB8ue170006Ev, symObjAddr: 0x13508, symBinAddr: 0x100014D04, symSize: 0x24 }
  - { offsetInCU: 0x23447, offset: 0x23447, size: 0x8, addend: 0x0, symName: __ZNSt3__112basic_stringIcNS_11char_traitsIcEENS_9allocatorIcEEE15__set_long_sizeB8ue170006Em, symObjAddr: 0x1352C, symBinAddr: 0x100014D28, symSize: 0x38 }
  - { offsetInCU: 0x2347C, offset: 0x2347C, size: 0x8, addend: 0x0, symName: __ZNSt3__111char_traitsIcE11to_int_typeB8ue170006Ec, symObjAddr: 0x13564, symBinAddr: 0x100014D60, symSize: 0x14 }
  - { offsetInCU: 0x234AB, offset: 0x234AB, size: 0x8, addend: 0x0, symName: __ZNSt3__116allocator_traitsINS_9allocatorIcEEE8max_sizeB8ue170006IS2_vEEmRKS2_, symObjAddr: 0x13578, symBinAddr: 0x100014D74, symSize: 0x24 }
  - { offsetInCU: 0x234D9, offset: 0x234D9, size: 0x8, addend: 0x0, symName: __ZNKSt3__112basic_stringIcNS_11char_traitsIcEENS_9allocatorIcEEE7__allocB8ue170006Ev, symObjAddr: 0x1359C, symBinAddr: 0x100014D98, symSize: 0x24 }
  - { offsetInCU: 0x234FF, offset: 0x234FF, size: 0x8, addend: 0x0, symName: __ZNSt3__114numeric_limitsImE3maxB8ue170006Ev, symObjAddr: 0x135C0, symBinAddr: 0x100014DBC, symSize: 0x14 }
  - { offsetInCU: 0x23513, offset: 0x23513, size: 0x8, addend: 0x0, symName: __ZNKSt3__19allocatorIcE8max_sizeB8ue170006Ev, symObjAddr: 0x135D4, symBinAddr: 0x100014DD0, symSize: 0x14 }
  - { offsetInCU: 0x23539, offset: 0x23539, size: 0x8, addend: 0x0, symName: __ZNKSt3__117__compressed_pairINS_12basic_stringIcNS_11char_traitsIcEENS_9allocatorIcEEE5__repES5_E6secondB8ue170006Ev, symObjAddr: 0x135E8, symBinAddr: 0x100014DE4, symSize: 0x24 }
  - { offsetInCU: 0x2355F, offset: 0x2355F, size: 0x8, addend: 0x0, symName: __ZNKSt3__122__compressed_pair_elemINS_9allocatorIcEELi1ELb1EE5__getB8ue170006Ev, symObjAddr: 0x1360C, symBinAddr: 0x100014E08, symSize: 0x14 }
  - { offsetInCU: 0x23585, offset: 0x23585, size: 0x8, addend: 0x0, symName: __ZNSt3__123__libcpp_numeric_limitsImLb1EE3maxB8ue170006Ev, symObjAddr: 0x13620, symBinAddr: 0x100014E1C, symSize: 0x8 }
  - { offsetInCU: 0x23599, offset: 0x23599, size: 0x8, addend: 0x0, symName: __ZNKSt3__18ios_base10exceptionsB8ue170006Ev, symObjAddr: 0x13628, symBinAddr: 0x100014E24, symSize: 0x18 }
  - { offsetInCU: 0x235C1, offset: 0x235C1, size: 0x8, addend: 0x0, symName: __ZNKSt3__19basic_iosIcNS_11char_traitsIcEEE4failB8ue170006Ev, symObjAddr: 0x13640, symBinAddr: 0x100014E3C, symSize: 0x28 }
  - { offsetInCU: 0x235E7, offset: 0x235E7, size: 0x8, addend: 0x0, symName: __ZNKSt3__18ios_base4failB8ue170006Ev, symObjAddr: 0x13668, symBinAddr: 0x100014E64, symSize: 0x28 }
  - { offsetInCU: 0x2360F, offset: 0x2360F, size: 0x8, addend: 0x0, symName: __ZNSt3__113unordered_mapINS_12basic_stringIcNS_11char_traitsIcEENS_9allocatorIcEEEE7commandNS_4hashIS6_EENS_8equal_toIS6_EENS4_INS_4pairIKS6_S7_EEEEEC2ERKSG_, symObjAddr: 0x13690, symBinAddr: 0x100014E8C, symSize: 0xA0 }
  - { offsetInCU: 0x2364A, offset: 0x2364A, size: 0x8, addend: 0x0, symName: __ZNSt3__112__hash_tableINS_17__hash_value_typeINS_12basic_stringIcNS_11char_traitsIcEENS_9allocatorIcEEEE7commandEENS_22__unordered_map_hasherIS7_S9_NS_4hashIS7_EENS_8equal_toIS7_EELb1EEENS_21__unordered_map_equalIS7_S9_SE_SC_Lb1EEENS5_IS9_EEEC1ERKSJ_, symObjAddr: 0x13730, symBinAddr: 0x100014F2C, symSize: 0x34 }
  - { offsetInCU: 0x23685, offset: 0x23685, size: 0x8, addend: 0x0, symName: __ZNKSt3__113unordered_mapINS_12basic_stringIcNS_11char_traitsIcEENS_9allocatorIcEEEE7commandNS_4hashIS6_EENS_8equal_toIS6_EENS4_INS_4pairIKS6_S7_EEEEE12bucket_countB8ue170006Ev, symObjAddr: 0x13764, symBinAddr: 0x100014F60, symSize: 0x24 }
  - { offsetInCU: 0x236AB, offset: 0x236AB, size: 0x8, addend: 0x0, symName: __ZNSt3__113unordered_mapINS_12basic_stringIcNS_11char_traitsIcEENS_9allocatorIcEEEE7commandNS_4hashIS6_EENS_8equal_toIS6_EENS4_INS_4pairIKS6_S7_EEEEE6insertINS_25__hash_map_const_iteratorINS_21__hash_const_iteratorIPNS_11__hash_nodeINS_17__hash_value_typeIS6_S7_EEPvEEEEEEEEvT_SS_, symObjAddr: 0x13788, symBinAddr: 0x100014F84, symSize: 0x70 }
  - { offsetInCU: 0x236FA, offset: 0x236FA, size: 0x8, addend: 0x0, symName: __ZNKSt3__113unordered_mapINS_12basic_stringIcNS_11char_traitsIcEENS_9allocatorIcEEEE7commandNS_4hashIS6_EENS_8equal_toIS6_EENS4_INS_4pairIKS6_S7_EEEEE5beginB8ue170006Ev, symObjAddr: 0x137F8, symBinAddr: 0x100014FF4, symSize: 0x38 }
  - { offsetInCU: 0x23720, offset: 0x23720, size: 0x8, addend: 0x0, symName: __ZNKSt3__113unordered_mapINS_12basic_stringIcNS_11char_traitsIcEENS_9allocatorIcEEEE7commandNS_4hashIS6_EENS_8equal_toIS6_EENS4_INS_4pairIKS6_S7_EEEEE3endB8ue170006Ev, symObjAddr: 0x13830, symBinAddr: 0x10001502C, symSize: 0x38 }
  - { offsetInCU: 0x23746, offset: 0x23746, size: 0x8, addend: 0x0, symName: __ZNSt3__112__hash_tableINS_17__hash_value_typeINS_12basic_stringIcNS_11char_traitsIcEENS_9allocatorIcEEEE7commandEENS_22__unordered_map_hasherIS7_S9_NS_4hashIS7_EENS_8equal_toIS7_EELb1EEENS_21__unordered_map_equalIS7_S9_SE_SC_Lb1EEENS5_IS9_EEEC2ERKSJ_, symObjAddr: 0x13868, symBinAddr: 0x100015064, symSize: 0xEC }
  - { offsetInCU: 0x23781, offset: 0x23781, size: 0x8, addend: 0x0, symName: __ZNSt3__116allocator_traitsINS_9allocatorIPNS_16__hash_node_baseIPNS_11__hash_nodeINS_17__hash_value_typeINS_12basic_stringIcNS_11char_traitsIcEENS1_IcEEEE7commandEEPvEEEEEEE37select_on_container_copy_constructionB8ue170006ISH_vvEESH_RKSH_, symObjAddr: 0x13954, symBinAddr: 0x100015150, symSize: 0x10 }
  - { offsetInCU: 0x237B0, offset: 0x237B0, size: 0x8, addend: 0x0, symName: __ZNKSt3__125__bucket_list_deallocatorINS_9allocatorIPNS_16__hash_node_baseIPNS_11__hash_nodeINS_17__hash_value_typeINS_12basic_stringIcNS_11char_traitsIcEENS1_IcEEEE7commandEEPvEEEEEEE7__allocB8ue170006Ev, symObjAddr: 0x13964, symBinAddr: 0x100015160, symSize: 0x24 }
  - { offsetInCU: 0x237D6, offset: 0x237D6, size: 0x8, addend: 0x0, symName: __ZNSt3__125__bucket_list_deallocatorINS_9allocatorIPNS_16__hash_node_baseIPNS_11__hash_nodeINS_17__hash_value_typeINS_12basic_stringIcNS_11char_traitsIcEENS1_IcEEEE7commandEEPvEEEEEEEC1B8ue170006ERKSH_m, symObjAddr: 0x13988, symBinAddr: 0x100015184, symSize: 0x3C }
  - { offsetInCU: 0x2381E, offset: 0x2381E, size: 0x8, addend: 0x0, symName: __ZNSt3__110unique_ptrIA_PNS_16__hash_node_baseIPNS_11__hash_nodeINS_17__hash_value_typeINS_12basic_stringIcNS_11char_traitsIcEENS_9allocatorIcEEEE7commandEEPvEEEENS_25__bucket_list_deallocatorINS7_ISG_EEEEEC1B8ue170006ILb1EvEEDnNS_16__dependent_typeINS_27__unique_ptr_deleter_sfinaeISK_EEXT_EE20__good_rval_ref_typeE, symObjAddr: 0x139C4, symBinAddr: 0x1000151C0, symSize: 0x3C }
  - { offsetInCU: 0x2386D, offset: 0x2386D, size: 0x8, addend: 0x0, symName: __ZNSt3__116allocator_traitsINS_9allocatorINS_11__hash_nodeINS_17__hash_value_typeINS_12basic_stringIcNS_11char_traitsIcEENS1_IcEEEE7commandEEPvEEEEE37select_on_container_copy_constructionB8ue170006ISD_vvEESD_RKSD_, symObjAddr: 0x13A00, symBinAddr: 0x1000151FC, symSize: 0x10 }
  - { offsetInCU: 0x2389C, offset: 0x2389C, size: 0x8, addend: 0x0, symName: __ZNKSt3__112__hash_tableINS_17__hash_value_typeINS_12basic_stringIcNS_11char_traitsIcEENS_9allocatorIcEEEE7commandEENS_22__unordered_map_hasherIS7_S9_NS_4hashIS7_EENS_8equal_toIS7_EELb1EEENS_21__unordered_map_equalIS7_S9_SE_SC_Lb1EEENS5_IS9_EEE12__node_allocB8ue170006Ev, symObjAddr: 0x13A10, symBinAddr: 0x10001520C, symSize: 0x28 }
  - { offsetInCU: 0x238C8, offset: 0x238C8, size: 0x8, addend: 0x0, symName: __ZNSt3__117__compressed_pairINS_16__hash_node_baseIPNS_11__hash_nodeINS_17__hash_value_typeINS_12basic_stringIcNS_11char_traitsIcEENS_9allocatorIcEEEE7commandEEPvEEEENS7_ISD_EEEC1B8ue170006INS_18__default_init_tagESG_EEOT_OT0_, symObjAddr: 0x13A38, symBinAddr: 0x100015234, symSize: 0x3C }
  - { offsetInCU: 0x23920, offset: 0x23920, size: 0x8, addend: 0x0, symName: __ZNSt3__117__compressed_pairImNS_22__unordered_map_hasherINS_12basic_stringIcNS_11char_traitsIcEENS_9allocatorIcEEEENS_17__hash_value_typeIS7_7commandEENS_4hashIS7_EENS_8equal_toIS7_EELb1EEEEC1B8ue170006IiRKSF_EEOT_OT0_, symObjAddr: 0x13A74, symBinAddr: 0x100015270, symSize: 0x3C }
  - { offsetInCU: 0x23978, offset: 0x23978, size: 0x8, addend: 0x0, symName: __ZNKSt3__117__compressed_pairImNS_9allocatorIPNS_16__hash_node_baseIPNS_11__hash_nodeINS_17__hash_value_typeINS_12basic_stringIcNS_11char_traitsIcEENS1_IcEEEE7commandEEPvEEEEEEE6secondB8ue170006Ev, symObjAddr: 0x13AB0, symBinAddr: 0x1000152AC, symSize: 0x24 }
  - { offsetInCU: 0x2399E, offset: 0x2399E, size: 0x8, addend: 0x0, symName: __ZNKSt3__122__compressed_pair_elemINS_9allocatorIPNS_16__hash_node_baseIPNS_11__hash_nodeINS_17__hash_value_typeINS_12basic_stringIcNS_11char_traitsIcEENS1_IcEEEE7commandEEPvEEEEEELi1ELb1EE5__getB8ue170006Ev, symObjAddr: 0x13AD4, symBinAddr: 0x1000152D0, symSize: 0x14 }
  - { offsetInCU: 0x239C4, offset: 0x239C4, size: 0x8, addend: 0x0, symName: __ZNSt3__125__bucket_list_deallocatorINS_9allocatorIPNS_16__hash_node_baseIPNS_11__hash_nodeINS_17__hash_value_typeINS_12basic_stringIcNS_11char_traitsIcEENS1_IcEEEE7commandEEPvEEEEEEEC2B8ue170006ERKSH_m, symObjAddr: 0x13AE8, symBinAddr: 0x1000152E4, symSize: 0x44 }
  - { offsetInCU: 0x23A0C, offset: 0x23A0C, size: 0x8, addend: 0x0, symName: __ZNSt3__117__compressed_pairImNS_9allocatorIPNS_16__hash_node_baseIPNS_11__hash_nodeINS_17__hash_value_typeINS_12basic_stringIcNS_11char_traitsIcEENS1_IcEEEE7commandEEPvEEEEEEEC1B8ue170006IRmRKSH_EEOT_OT0_, symObjAddr: 0x13B2C, symBinAddr: 0x100015328, symSize: 0x3C }
  - { offsetInCU: 0x23A64, offset: 0x23A64, size: 0x8, addend: 0x0, symName: __ZNSt3__117__compressed_pairImNS_9allocatorIPNS_16__hash_node_baseIPNS_11__hash_nodeINS_17__hash_value_typeINS_12basic_stringIcNS_11char_traitsIcEENS1_IcEEEE7commandEEPvEEEEEEEC2B8ue170006IRmRKSH_EEOT_OT0_, symObjAddr: 0x13B68, symBinAddr: 0x100015364, symSize: 0x44 }
  - { offsetInCU: 0x23ABC, offset: 0x23ABC, size: 0x8, addend: 0x0, symName: __ZNSt3__122__compressed_pair_elemImLi0ELb0EEC2B8ue170006IRmvEEOT_, symObjAddr: 0x13BAC, symBinAddr: 0x1000153A8, symSize: 0x24 }
  - { offsetInCU: 0x23AFE, offset: 0x23AFE, size: 0x8, addend: 0x0, symName: __ZNSt3__122__compressed_pair_elemINS_9allocatorIPNS_16__hash_node_baseIPNS_11__hash_nodeINS_17__hash_value_typeINS_12basic_stringIcNS_11char_traitsIcEENS1_IcEEEE7commandEEPvEEEEEELi1ELb1EEC2B8ue170006IRKSH_vEEOT_, symObjAddr: 0x13BD0, symBinAddr: 0x1000153CC, symSize: 0x18 }
  - { offsetInCU: 0x23B40, offset: 0x23B40, size: 0x8, addend: 0x0, symName: __ZNSt3__110unique_ptrIA_PNS_16__hash_node_baseIPNS_11__hash_nodeINS_17__hash_value_typeINS_12basic_stringIcNS_11char_traitsIcEENS_9allocatorIcEEEE7commandEEPvEEEENS_25__bucket_list_deallocatorINS7_ISG_EEEEEC2B8ue170006ILb1EvEEDnNS_16__dependent_typeINS_27__unique_ptr_deleter_sfinaeISK_EEXT_EE20__good_rval_ref_typeE, symObjAddr: 0x13BE8, symBinAddr: 0x1000153E4, symSize: 0x48 }
  - { offsetInCU: 0x23B8F, offset: 0x23B8F, size: 0x8, addend: 0x0, symName: __ZNSt3__117__compressed_pairIPPNS_16__hash_node_baseIPNS_11__hash_nodeINS_17__hash_value_typeINS_12basic_stringIcNS_11char_traitsIcEENS_9allocatorIcEEEE7commandEEPvEEEENS_25__bucket_list_deallocatorINS7_ISG_EEEEEC1B8ue170006IDnSK_EEOT_OT0_, symObjAddr: 0x13C30, symBinAddr: 0x10001542C, symSize: 0x3C }
  - { offsetInCU: 0x23BE7, offset: 0x23BE7, size: 0x8, addend: 0x0, symName: __ZNSt3__117__compressed_pairIPPNS_16__hash_node_baseIPNS_11__hash_nodeINS_17__hash_value_typeINS_12basic_stringIcNS_11char_traitsIcEENS_9allocatorIcEEEE7commandEEPvEEEENS_25__bucket_list_deallocatorINS7_ISG_EEEEEC2B8ue170006IDnSK_EEOT_OT0_, symObjAddr: 0x13C6C, symBinAddr: 0x100015468, symSize: 0x48 }
  - { offsetInCU: 0x23C3F, offset: 0x23C3F, size: 0x8, addend: 0x0, symName: __ZNSt3__122__compressed_pair_elemIPPNS_16__hash_node_baseIPNS_11__hash_nodeINS_17__hash_value_typeINS_12basic_stringIcNS_11char_traitsIcEENS_9allocatorIcEEEE7commandEEPvEEEELi0ELb0EEC2B8ue170006IDnvEEOT_, symObjAddr: 0x13CB4, symBinAddr: 0x1000154B0, symSize: 0x1C }
  - { offsetInCU: 0x23C81, offset: 0x23C81, size: 0x8, addend: 0x0, symName: __ZNSt3__122__compressed_pair_elemINS_25__bucket_list_deallocatorINS_9allocatorIPNS_16__hash_node_baseIPNS_11__hash_nodeINS_17__hash_value_typeINS_12basic_stringIcNS_11char_traitsIcEENS2_IcEEEE7commandEEPvEEEEEEEELi1ELb0EEC2B8ue170006ISJ_vEEOT_, symObjAddr: 0x13CD0, symBinAddr: 0x1000154CC, symSize: 0x34 }
  - { offsetInCU: 0x23CC3, offset: 0x23CC3, size: 0x8, addend: 0x0, symName: __ZNSt3__125__bucket_list_deallocatorINS_9allocatorIPNS_16__hash_node_baseIPNS_11__hash_nodeINS_17__hash_value_typeINS_12basic_stringIcNS_11char_traitsIcEENS1_IcEEEE7commandEEPvEEEEEEEC1B8ue170006EOSI_, symObjAddr: 0x13D04, symBinAddr: 0x100015500, symSize: 0x34 }
  - { offsetInCU: 0x23CFC, offset: 0x23CFC, size: 0x8, addend: 0x0, symName: __ZNSt3__125__bucket_list_deallocatorINS_9allocatorIPNS_16__hash_node_baseIPNS_11__hash_nodeINS_17__hash_value_typeINS_12basic_stringIcNS_11char_traitsIcEENS1_IcEEEE7commandEEPvEEEEEEEC2B8ue170006EOSI_, symObjAddr: 0x13D38, symBinAddr: 0x100015534, symSize: 0x48 }
  - { offsetInCU: 0x23D35, offset: 0x23D35, size: 0x8, addend: 0x0, symName: __ZNKSt3__117__compressed_pairINS_16__hash_node_baseIPNS_11__hash_nodeINS_17__hash_value_typeINS_12basic_stringIcNS_11char_traitsIcEENS_9allocatorIcEEEE7commandEEPvEEEENS7_ISD_EEE6secondB8ue170006Ev, symObjAddr: 0x13D80, symBinAddr: 0x10001557C, symSize: 0x24 }
  - { offsetInCU: 0x23D5B, offset: 0x23D5B, size: 0x8, addend: 0x0, symName: __ZNKSt3__122__compressed_pair_elemINS_9allocatorINS_11__hash_nodeINS_17__hash_value_typeINS_12basic_stringIcNS_11char_traitsIcEENS1_IcEEEE7commandEEPvEEEELi1ELb1EE5__getB8ue170006Ev, symObjAddr: 0x13DA4, symBinAddr: 0x1000155A0, symSize: 0x14 }
  - { offsetInCU: 0x23D81, offset: 0x23D81, size: 0x8, addend: 0x0, symName: __ZNSt3__117__compressed_pairINS_16__hash_node_baseIPNS_11__hash_nodeINS_17__hash_value_typeINS_12basic_stringIcNS_11char_traitsIcEENS_9allocatorIcEEEE7commandEEPvEEEENS7_ISD_EEEC2B8ue170006INS_18__default_init_tagESG_EEOT_OT0_, symObjAddr: 0x13DB8, symBinAddr: 0x1000155B4, symSize: 0x40 }
  - { offsetInCU: 0x23DD9, offset: 0x23DD9, size: 0x8, addend: 0x0, symName: __ZNSt3__122__compressed_pair_elemINS_16__hash_node_baseIPNS_11__hash_nodeINS_17__hash_value_typeINS_12basic_stringIcNS_11char_traitsIcEENS_9allocatorIcEEEE7commandEEPvEEEELi0ELb0EEC2B8ue170006ENS_18__default_init_tagE, symObjAddr: 0x13DF8, symBinAddr: 0x1000155F4, symSize: 0x2C }
  - { offsetInCU: 0x23E0E, offset: 0x23E0E, size: 0x8, addend: 0x0, symName: __ZNSt3__122__compressed_pair_elemINS_9allocatorINS_11__hash_nodeINS_17__hash_value_typeINS_12basic_stringIcNS_11char_traitsIcEENS1_IcEEEE7commandEEPvEEEELi1ELb1EEC2B8ue170006ISD_vEEOT_, symObjAddr: 0x13E24, symBinAddr: 0x100015620, symSize: 0x18 }
  - { offsetInCU: 0x23E50, offset: 0x23E50, size: 0x8, addend: 0x0, symName: __ZNSt3__117__compressed_pairImNS_22__unordered_map_hasherINS_12basic_stringIcNS_11char_traitsIcEENS_9allocatorIcEEEENS_17__hash_value_typeIS7_7commandEENS_4hashIS7_EENS_8equal_toIS7_EELb1EEEEC2B8ue170006IiRKSF_EEOT_OT0_, symObjAddr: 0x13E3C, symBinAddr: 0x100015638, symSize: 0x44 }
  - { offsetInCU: 0x23EA8, offset: 0x23EA8, size: 0x8, addend: 0x0, symName: __ZNSt3__122__compressed_pair_elemINS_22__unordered_map_hasherINS_12basic_stringIcNS_11char_traitsIcEENS_9allocatorIcEEEENS_17__hash_value_typeIS7_7commandEENS_4hashIS7_EENS_8equal_toIS7_EELb1EEELi1ELb1EEC2B8ue170006IRKSF_vEEOT_, symObjAddr: 0x13E80, symBinAddr: 0x10001567C, symSize: 0x18 }
  - { offsetInCU: 0x23EEA, offset: 0x23EEA, size: 0x8, addend: 0x0, symName: __ZNSt3__112__hash_tableINS_17__hash_value_typeINS_12basic_stringIcNS_11char_traitsIcEENS_9allocatorIcEEEE7commandEENS_22__unordered_map_hasherIS7_S9_NS_4hashIS7_EENS_8equal_toIS7_EELb1EEENS_21__unordered_map_equalIS7_S9_SE_SC_Lb1EEENS5_IS9_EEE15__insert_uniqueB8ue170006ERKNS_4pairIKS7_S8_EE, symObjAddr: 0x13EC8, symBinAddr: 0x1000156C4, symSize: 0x50 }
  - { offsetInCU: 0x23F1F, offset: 0x23F1F, size: 0x8, addend: 0x0, symName: __ZNKSt3__125__hash_map_const_iteratorINS_21__hash_const_iteratorIPNS_11__hash_nodeINS_17__hash_value_typeINS_12basic_stringIcNS_11char_traitsIcEENS_9allocatorIcEEEE7commandEEPvEEEEEdeB8ue170006Ev, symObjAddr: 0x13F18, symBinAddr: 0x100015714, symSize: 0x28 }
  - { offsetInCU: 0x23F45, offset: 0x23F45, size: 0x8, addend: 0x0, symName: __ZNSt3__125__hash_map_const_iteratorINS_21__hash_const_iteratorIPNS_11__hash_nodeINS_17__hash_value_typeINS_12basic_stringIcNS_11char_traitsIcEENS_9allocatorIcEEEE7commandEEPvEEEEEppB8ue170006Ev, symObjAddr: 0x13F40, symBinAddr: 0x10001573C, symSize: 0x2C }
  - { offsetInCU: 0x23F6B, offset: 0x23F6B, size: 0x8, addend: 0x0, symName: __ZNSt3__112__hash_tableINS_17__hash_value_typeINS_12basic_stringIcNS_11char_traitsIcEENS_9allocatorIcEEEE7commandEENS_22__unordered_map_hasherIS7_S9_NS_4hashIS7_EENS_8equal_toIS7_EELb1EEENS_21__unordered_map_equalIS7_S9_SE_SC_Lb1EEENS5_IS9_EEE25__emplace_unique_key_argsIS7_JRKNS_4pairIKS7_S8_EEEEENSL_INS_15__hash_iteratorIPNS_11__hash_nodeIS9_PvEEEEbEERKT_DpOT0_, symObjAddr: 0x13F6C, symBinAddr: 0x100015768, symSize: 0x4A0 }
  - { offsetInCU: 0x2404B, offset: 0x2404B, size: 0x8, addend: 0x0, symName: __ZNSt3__122__hash_key_value_typesINS_17__hash_value_typeINS_12basic_stringIcNS_11char_traitsIcEENS_9allocatorIcEEEE7commandEEE9__get_keyB8ue170006ERKNS_4pairIKS7_S8_EE, symObjAddr: 0x1440C, symBinAddr: 0x100015C08, symSize: 0x14 }
  - { offsetInCU: 0x2406E, offset: 0x2406E, size: 0x8, addend: 0x0, symName: __ZNSt3__112__hash_tableINS_17__hash_value_typeINS_12basic_stringIcNS_11char_traitsIcEENS_9allocatorIcEEEE7commandEENS_22__unordered_map_hasherIS7_S9_NS_4hashIS7_EENS_8equal_toIS7_EELb1EEENS_21__unordered_map_equalIS7_S9_SE_SC_Lb1EEENS5_IS9_EEE21__construct_node_hashIRKNS_4pairIKS7_S8_EEJEEENS_10unique_ptrINS_11__hash_nodeIS9_PvEENS_22__hash_node_destructorINS5_IST_EEEEEEmOT_DpOT0_, symObjAddr: 0x14420, symBinAddr: 0x100015C1C, symSize: 0x140 }
  - { offsetInCU: 0x240E1, offset: 0x240E1, size: 0x8, addend: 0x0, symName: __ZNSt3__116allocator_traitsINS_9allocatorINS_11__hash_nodeINS_17__hash_value_typeINS_12basic_stringIcNS_11char_traitsIcEENS1_IcEEEE7commandEEPvEEEEE9constructB8ue170006INS_4pairIKS8_S9_EEJRKSI_EvEEvRSD_PT_DpOT0_, symObjAddr: 0x14560, symBinAddr: 0x100015D5C, symSize: 0x34 }
  - { offsetInCU: 0x24138, offset: 0x24138, size: 0x8, addend: 0x0, symName: __ZNSt3__19allocatorINS_11__hash_nodeINS_17__hash_value_typeINS_12basic_stringIcNS_11char_traitsIcEENS0_IcEEEE7commandEEPvEEE9constructB8ue170006INS_4pairIKS7_S8_EEJRKSG_EEEvPT_DpOT0_, symObjAddr: 0x14594, symBinAddr: 0x100015D90, symSize: 0x30 }
  - { offsetInCU: 0x2418E, offset: 0x2418E, size: 0x8, addend: 0x0, symName: __ZNSt3__14pairIKNS_12basic_stringIcNS_11char_traitsIcEENS_9allocatorIcEEEE7commandEC1B8ue170006ERKS9_, symObjAddr: 0x145C4, symBinAddr: 0x100015DC0, symSize: 0x34 }
  - { offsetInCU: 0x241C3, offset: 0x241C3, size: 0x8, addend: 0x0, symName: __ZNSt3__14pairIKNS_12basic_stringIcNS_11char_traitsIcEENS_9allocatorIcEEEE7commandEC2B8ue170006ERKS9_, symObjAddr: 0x145F8, symBinAddr: 0x100015DF4, symSize: 0x40 }
  - { offsetInCU: 0x241F8, offset: 0x241F8, size: 0x8, addend: 0x0, symName: __ZNKSt3__121__hash_const_iteratorIPNS_11__hash_nodeINS_17__hash_value_typeINS_12basic_stringIcNS_11char_traitsIcEENS_9allocatorIcEEEE7commandEEPvEEEptB8ue170006Ev, symObjAddr: 0x14638, symBinAddr: 0x100015E34, symSize: 0x30 }
  - { offsetInCU: 0x2421E, offset: 0x2421E, size: 0x8, addend: 0x0, symName: __ZNSt3__114pointer_traitsIPKNS_17__hash_value_typeINS_12basic_stringIcNS_11char_traitsIcEENS_9allocatorIcEEEE7commandEEE10pointer_toB8ue170006ERSA_, symObjAddr: 0x14668, symBinAddr: 0x100015E64, symSize: 0x14 }
  - { offsetInCU: 0x24241, offset: 0x24241, size: 0x8, addend: 0x0, symName: __ZNSt3__121__hash_const_iteratorIPNS_11__hash_nodeINS_17__hash_value_typeINS_12basic_stringIcNS_11char_traitsIcEENS_9allocatorIcEEEE7commandEEPvEEEppB8ue170006Ev, symObjAddr: 0x1467C, symBinAddr: 0x100015E78, symSize: 0x20 }
  - { offsetInCU: 0x24267, offset: 0x24267, size: 0x8, addend: 0x0, symName: __ZNKSt3__112__hash_tableINS_17__hash_value_typeINS_12basic_stringIcNS_11char_traitsIcEENS_9allocatorIcEEEE7commandEENS_22__unordered_map_hasherIS7_S9_NS_4hashIS7_EENS_8equal_toIS7_EELb1EEENS_21__unordered_map_equalIS7_S9_SE_SC_Lb1EEENS5_IS9_EEE5beginEv, symObjAddr: 0x1469C, symBinAddr: 0x100015E98, symSize: 0x38 }
  - { offsetInCU: 0x2428F, offset: 0x2428F, size: 0x8, addend: 0x0, symName: __ZNSt3__125__hash_map_const_iteratorINS_21__hash_const_iteratorIPNS_11__hash_nodeINS_17__hash_value_typeINS_12basic_stringIcNS_11char_traitsIcEENS_9allocatorIcEEEE7commandEEPvEEEEEC1B8ue170006ESF_, symObjAddr: 0x146D4, symBinAddr: 0x100015ED0, symSize: 0x34 }
  - { offsetInCU: 0x242C8, offset: 0x242C8, size: 0x8, addend: 0x0, symName: __ZNKSt3__117__compressed_pairINS_16__hash_node_baseIPNS_11__hash_nodeINS_17__hash_value_typeINS_12basic_stringIcNS_11char_traitsIcEENS_9allocatorIcEEEE7commandEEPvEEEENS7_ISD_EEE5firstB8ue170006Ev, symObjAddr: 0x14708, symBinAddr: 0x100015F04, symSize: 0x24 }
  - { offsetInCU: 0x242EE, offset: 0x242EE, size: 0x8, addend: 0x0, symName: __ZNKSt3__122__compressed_pair_elemINS_16__hash_node_baseIPNS_11__hash_nodeINS_17__hash_value_typeINS_12basic_stringIcNS_11char_traitsIcEENS_9allocatorIcEEEE7commandEEPvEEEELi0ELb0EE5__getB8ue170006Ev, symObjAddr: 0x1472C, symBinAddr: 0x100015F28, symSize: 0x14 }
  - { offsetInCU: 0x24314, offset: 0x24314, size: 0x8, addend: 0x0, symName: __ZNSt3__125__hash_map_const_iteratorINS_21__hash_const_iteratorIPNS_11__hash_nodeINS_17__hash_value_typeINS_12basic_stringIcNS_11char_traitsIcEENS_9allocatorIcEEEE7commandEEPvEEEEEC2B8ue170006ESF_, symObjAddr: 0x14740, symBinAddr: 0x100015F3C, symSize: 0x20 }
  - { offsetInCU: 0x2434D, offset: 0x2434D, size: 0x8, addend: 0x0, symName: __ZNSt3__110shared_ptrItEC1B8ue170006EOS1_, symObjAddr: 0x14760, symBinAddr: 0x100015F5C, symSize: 0x34 }
  - { offsetInCU: 0x24386, offset: 0x24386, size: 0x8, addend: 0x0, symName: __ZNSt3__110shared_ptrItE4swapB8ue170006ERS1_, symObjAddr: 0x14794, symBinAddr: 0x100015F90, symSize: 0x44 }
  - { offsetInCU: 0x243BB, offset: 0x243BB, size: 0x8, addend: 0x0, symName: __ZNSt3__110shared_ptrItEC2B8ue170006EOS1_, symObjAddr: 0x147D8, symBinAddr: 0x100015FD4, symSize: 0x40 }
  - { offsetInCU: 0x243F4, offset: 0x243F4, size: 0x8, addend: 0x0, symName: __ZNSt3__120__shared_ptr_emplaceItNS_9allocatorItEEEC1B8ue170006IJRiEEES2_DpOT_, symObjAddr: 0x14928, symBinAddr: 0x100016124, symSize: 0x34 }
  - { offsetInCU: 0x24447, offset: 0x24447, size: 0x8, addend: 0x0, symName: __ZNSt3__120__shared_ptr_emplaceItNS_9allocatorItEEEC2B8ue170006IJRiEEES2_DpOT_, symObjAddr: 0x1495C, symBinAddr: 0x100016158, symSize: 0x9C }
  - { offsetInCU: 0x2449A, offset: 0x2449A, size: 0x8, addend: 0x0, symName: __ZNSt3__110shared_ptrItEC2B8ue170006ERKS1_, symObjAddr: 0x149F8, symBinAddr: 0x1000161F4, symSize: 0x70 }
  - { offsetInCU: 0x244D3, offset: 0x244D3, size: 0x8, addend: 0x0, symName: __ZNSt3__119__shared_weak_count12__add_sharedB8ue170006Ev, symObjAddr: 0x14A68, symBinAddr: 0x100016264, symSize: 0x24 }
  - { offsetInCU: 0x244F9, offset: 0x244F9, size: 0x8, addend: 0x0, symName: __ZNSt3__114__shared_count12__add_sharedB8ue170006Ev, symObjAddr: 0x14A8C, symBinAddr: 0x100016288, symSize: 0x28 }
...
